ccopy_reg
_reconstructor
p0
(cgensim.corpora.dictionary
Dictionary
p1
c__builtin__
object
p2
Ntp3
Rp4
(dp5
S'num_docs'
p6
I101
sS'token2id'
p7
(dp8
V\u964d\u7ea7
p9
I2280
sV\u6302
p10
I488
sV\u5965\u8fea
p11
I492
sV\u8c08
p12
I1759
sV\u6cb3\u5357
p13
I4
sV\u51dd\u805a
p14
I2124
sV\u636e\u4ecb\u7ecd
p15
I3321
sV\u786e\u4fdd
p16
I3611
sV\u5de5\u827a
p17
I8
sV\u4e50\u56ed
p18
I2709
sV\u5047\u65e5
p19
I2884
sV\u59d4\u5458
p20
I3221
sV\u8c08\u5230
p21
I2507
sV\u6848\u4ef6
p22
I504
sV\u53d1\u751f
p23
I217
sV\u738b\u667a
p24
I2287
sV\u89e3\u76d8
p25
I2300
sV\u6210\u5206
p26
I1883
sV\u82ac\u592a\u5c3c
p27
I1957
sV\u8212\u9002\u6027
p28
I358
sV\u7535
p29
I1788
sV\u6811\u7acb
p30
I1317
sV\u65b0\u4e16\u7eaa
p31
I3687
sV\u7ebf
p32
I1442
sV\u9632\u52a1
p33
I3625
sV\u751f\u98df
p34
I2141
sV\u4e8b\u52a1
p35
I2489
sV\u9a97\u5c40
p36
I2925
sV\u8865\u62a5
p37
I3202
sV\u4fe1\u7528
p38
I1082
sV\u54c1\u724c
p39
I24
sV\u5236\u836f
p40
I1900
sV\u4e1c\u5357\u4e9a
p41
I2657
sV\u9650\u5ea6
p42
I2085
sV\u5be1\u5934
p43
I1897
sV\u4e4b\u604b
p44
I3424
sV\u6587\u7269\u4fdd\u62a4
p45
I1742
sV\u770b\u4f3c
p46
I31
sV\u5173\u7cfb
p47
I32
sV\u65c5\u6e38\u8005
p48
I2669
sV\u9c9c\u82b1
p49
I2368
sV\u4e16\u7eaa
p50
I36
sV\u60c5\u611f
p51
I1307
sV\u8d77\u8bc9
p52
I1594
sV\u56db\u5e93\u5168\u4e66
p53
I1560
sV\u8f93\u6389
p54
I522
sV\u76c8\u5229
p55
I238
sV\u526f\u6821\u957f
p56
I3059
sV\u63a5\u8fd1
p57
I378
sV\u56de\u6765
p58
I2503
sV\u6297\u6291\u90c1
p59
I1919
sV\u5927\u6237
p60
I1860
sV\u5d4a\u5dde
p61
I1702
sV\u724c
p62
I2655
sV\u5c9b\u5c7f
p63
I3642
sV\u6210\u90fd\u519b\u533a
p64
I3688
sV\u89c9\u9192
p65
I1255
sV\u6bb5\u6c38\u57fa
p66
I1760
sV\u8bc9\u8bbc\u8d39
p67
I1818
sV\u5b98\u5458
p68
I1776
sV\u8bd5\u56fe
p69
I1890
sV\u5e94
p70
I535
sV\u53a6\u95e8
p71
I2579
sV\u610f\u5473\u7740
p72
I1198
sV\u670d\u52a1\u6c34\u5e73
p73
I553
sV\u4e13\u79d1
p74
I3204
sV\u91d1\u5b57\u5854
p75
I2770
sV\u5954\u9a70\u516c\u53f8
p76
I541
sV\u5b9e\u9a8c\u5ba4
p77
I3587
sV\u65f6\u523b
p78
I2397
sV\u5c0f\u5b66
p79
I3389
sV\u6280\u672f
p80
I52
sV\u5927\u6218
p81
I546
sV\u536b\u751f\u90e8
p82
I1949
sV\u8bb2
p83
I1109
sV\u7ec8\u7aef
p84
I966
sV\u8d27\u5e01
p85
I912
sV\u4e94\u5927\u8fde\u6c60
p86
I2860
sV\u60c5\u51b5
p87
I394
sV\u5145\u5206\u53d1\u6325
p88
I2893
sV\u89c1\u8bc1
p89
I3364
sV\u9ad8\u624b
p90
I2355
sV\u9646\u519b
p91
I3694
sV\u79bb\u4e0d\u5f00
p92
I3599
sV\u5165\u7720
p93
I2180
sV\u7834\u574f
p94
I1473
sV\u7d20\u6709
p95
I3228
sV\u519b\u88c5
p96
I3712
sV\u5468\u8fb9\u65c5\u6e38
p97
I2637
sV\u636e\u7edf\u8ba1
p98
I1880
sV\u964d\u5e45
p99
I1525
sV\u7ffb\u8bd1
p100
I3108
sV\u8fd0\u7b97
p101
I3151
sV\u65b0\u95fb
p102
I567
sV\u6536\u76ca
p103
I762
sV\u5f31\u52bf
p104
I1352
sV\u5546\u52a1
p105
I191
sV\u4fdd\u7ea7
p106
I2541
sV\u67e5\u5b57\u5178
p107
I3102
sV\u4e3b\u9898
p108
I2036
sV\u4ea7\u54c1
p109
I73
sV\u5185\u6db5
p110
I1356
sV\u9a91\u58eb\u961f
p111
I2418
sV\u6d88\u9664
p112
I2193
sV\u4eba\u4f53
p113
I2194
sV\u5de8\u4eba
p114
I2335
sV\u5f80\u5f80
p115
I493
sV\u7b80\u5386
p116
I1479
sV\u76ee\u524d
p117
I76
sV\u6708\u521d
p118
I973
sV\u6d17\u8863\u673a
p119
I1191
sV\u62ff\u5230
p120
I704
sV\u6b66\u5668
p121
I1619
sV\u4eba\u4eba
p122
I1481
sV\u5165\u56f4
p123
I1714
sV\u673a\u5236
p124
I1104
sV\u5e7b\u60f3
p125
I2552
sV\u6885\u897f\u7eb3
p126
I2290
sV\u5e7f\u4e1c\u7701
p127
I1828
sV\u9648\u9c81\u8c6b
p128
I3369
sV\u56fd\u9632\u90e8
p129
I3620
sV\u53a8\u623f
p130
I3254
sV\u5403\u996d
p131
I2915
sV\u6240\u77e5
p132
I3266
sV\u4efd\u989d
p133
I788
sV\u4e0b\u7ebf
p134
I990
sV\u9646\u7a7a
p135
I3684
sV\u94fe\u63a5
p136
I2793
sV\u8303\u67f3\u539f
p137
I3420
sV\u5904\u65b9\u836f
p138
I1882
sV\u8868\u660e
p139
I595
sV\u534a\u5bfc\u4f53
p140
I3270
sV\u540e\u6392
p141
I424
sV\u5f3a\u5ea6
p142
I1980
sV\u9648\u8ff0
p143
I1832
sV\u4f9d\u6cd5
p144
I799
sV\u7559\u5b88
p145
I836
sV\u6709\u529b
p146
I428
sV\u6846
p147
I3201
sV\u5c31\u4e1a
p148
I805
sV\u5360\u636e
p149
I1000
sV\u80a1\u6743
p150
I70
sV\u5b66\u79d1\u7fa4
p151
I3593
sV\u8003\u751f
p152
I3002
sV\u5f00\u5c55
p153
I694
sV\u7ec4\u6210
p154
I815
sV\u6559\u8bad
p155
I616
sV\u6218\u672f\u5bfc\u5f39
p156
I3639
sV\u5ba2\u670d
p157
I1494
sV\u573a\u6240
p158
I822
sV\u8d8b\u4e8e
p159
I823
sV\u89c6\u7ebf
p160
I2037
sV\u6709\u52a9
p161
I2220
sV\u8df3
p162
I1498
sV\u80fd\u5e26
p163
I2474
sV\u8c08\u5224
p164
I1765
sV\u7f8e\u56fd\u653f\u5e9c
p165
I934
sV\u8bbf\u8c08
p166
I2039
sV\u660e\u5929
p167
I2469
sV\u673a\u52a8
p168
I3478
sV\u6b27\u6d32
p169
I153
sV\u900f\u8fc7
p170
I3127
sV\u7a0e\u8d39
p171
I804
sV\u4e2d\u56fd\u56fd\u5bb6\u65c5\u6e38\u5c40
p172
I2612
sV\u7231\u60c5
p173
I2908
sV\u4eba\u4e3a
p174
I1040
sV\u672a\u6765
p175
I451
sV\u60f3\u8981
p176
I630
sV\u58eb\u5b98
p177
I3676
sV\u603b\u4f53
p178
I1017
sV\u6069\u6ce2\u5229
p179
I2291
sV\u4f20\u8f93
p180
I3577
sV\u8fbe\u6210
p181
I2886
sV\u5ff5\u5934
p182
I1508
sV\u53f0\u6e7e
p183
I457
sV\u914d\u5408
p184
I857
sV\u610f\u89c1
p185
I1510
sV\u70b9\u7a74
p186
I3616
sV\u6d41\u5931
p187
I1408
sV\u6539\u53d8
p188
I460
sV\u524d\u8fdb
p189
I3348
sV\u79d1\u9686
p190
I2302
sV\u7528\u54c1
p191
I2117
sV\u52a8\u6447
p192
I1327
sV\u8001\u677f
p193
I1515
sV\u5438\u5f15
p194
I861
sV\u6240\u9700
p195
I1838
sV\u91cd\u5ea6
p196
I1923
sV\u4eca
p197
I2654
sV\u524d
p198
I468
sV\u524d\u536b
p199
I1418
sV\u4f20\u64ad
p200
I1215
sV\u5144\u5f1f
p201
I1673
sV\u9500\u552e\u6536\u5165
p202
I74
sV\u97f3\u54cd
p203
I471
sV\u5973\u513f
p204
I3393
sV\u5c40\u57df\u7f51
p205
I3563
sV\u7ecf\u6d4e\u578b
p206
I2824
sV\u9519\u8bef
p207
I1425
sV\u5c0f\u8087
p208
I2504
sV\u53c2\u8003\u4e66
p209
I3196
sV\u56fe\u5e93
p210
I2625
sV\u964d\u4ef7
p211
I1537
sV\u590d\u4e60\u8d44\u6599
p212
I2979
sV\u6c99\u7279
p213
I671
sV\u76f4\u5347\u673a
p214
I3622
sV\u65f6\u95f4\u6bb5
p215
I483
sV\u683c\u5c40
p216
I1430
sV\u9000\u51fa
p217
I14
sV\u6f2b\u6e38
p218
I1675
sV\u8425\u8fd0
p219
I743
sV\u7bc7\u6587\u7ae0
p220
I3040
sV\u76ee\u5149
p221
I1067
sV\u91d1\u8d35
p222
I3605
sV\u4f20\u6765
p223
I202
sV\u6c42\u804c
p224
I3256
sV\u592b\u5b50\u5e99
p225
I2882
sV\u827a\u672f\u7c7b
p226
I3210
sV\u5e93
p227
I2702
sV\u52a0\u6df1
p228
I2512
sV\u8de8\u56fd\u516c\u53f8
p229
I1974
sV\u53cb\u90bb
p230
I3488
sV\u987e\u5ba2
p231
I1366
sV\u4e0b\u8f66
p232
I2693
sV\u764c\u75c7
p233
I1945
sV\u5b8c\u5584
p234
I166
sV\u7cbe\u529b
p235
I13
sV\u9047\u5230
p236
I402
sV\u5ba3\u5e03
p237
I1531
sV\u4e1c\u897f
p238
I502
sV\u6574\u6574
p239
I1435
sV\u5ac1\u7ed9
p240
I3449
sV\u4e0b\u964d
p241
I17
sV\u8ba4\u8bc1
p242
I2109
sV\u8d5b\u8bfa\u83f2
p243
I1881
sV\u5370\u8c61
p244
I1314
sV\u6c34
p245
I1729
sV\u65e5\u672c\u653f\u5e9c
p246
I2743
sV\u764c\u75db
p247
I1972
sV\u91c7\u53d6
p248
I510
sV\u5e26\u5934\u4eba
p249
I2977
sV\u8bc8\u9a97\u7f6a
p250
I1049
sV\u5927\u53a6
p251
I3225
sV\u8d2d\u7269
p252
I2694
sV\u85aa\u6c34
p253
I1443
sV\u590f\u5b63
p254
I2616
sV\u8bf4\u670d
p255
I3245
sV\u8bed\u6cd5
p256
I3100
sV\u7261\u4e39\u6c5f
p257
I2867
sV\u4e3e\u676f
p258
I3380
sV\u8d70\u4e0a
p259
I516
sV\u5bf9\u79f0
p260
I702
sV\u5efa\u5236
p261
I3566
sV\u57fa\u5730
p262
I29
sV\u5df2\u6709
p263
I1302
sV\u6821\u957f
p264
I3065
sV\u673a\u5173
p265
I3569
sV\u533b\u7597\u4fdd\u9669
p266
I1904
sV\u6fc0\u7d20
p267
I2151
sV\u5165\u4f4f\u7387
p268
I2752
sV\u5a92\u4f53
p269
I520
sV\u5b9e\u5175\u6f14\u4e60
p270
I3498
sV\u5728\u5916
p271
I2154
sV\u89c4\u6a21
p272
I37
sV\u9762\u8bd5
p273
I3285
sV\u7279\u533a
p274
I2621
sV\u6c49\u8bed
p275
I2404
sV\u6c11\u610f\u6d4b\u9a8c
p276
I1597
sV\u4e34\u5e8a
p277
I1936
sV\u53e3\u8154
p278
I2119
sV\u8def\u5e73
p279
I1454
sV\u5c71\u6c34\u76f8\u8fde
p280
I2688
sV\u5bf9\u4e59\u9170\u6c28\u57fa\u915a
p281
I1922
sV\u6346\u7ed1
p282
I1096
sV\u8d35\u5dde
p283
I1703
sV\u88c5\u7532\u56e2
p284
I3486
sV\u5317\u4eac\u7b2c\u4e8c\u5916\u56fd\u8bed\u5b66\u9662
p285
I2942
sV\u666e\u5409
p286
I2658
sV\u521b\u4e1a
p287
I45
sV\u6d41\u7a0b
p288
I1456
sV\u884c\u4e3a
p289
I336
sV\u7b11
p290
I2750
sV\u7b56\u5212
p291
I2887
sV\u827a\u672f
p292
I1709
sV\u5b63\u6cfd
p293
I3454
sV\u7f18
p294
I3450
sV\u521b\u4e0b
p295
I897
sV\u5916\u56fd\u4eba
p296
I2740
sV\u665a\u7761
p297
I2277
sV\u5c45\u6c11
p298
I1824
sV\u90e8\u957f
p299
I2739
sV\u51b0\u7bb1
p300
I136
sV\u5e72\u6270
p301
I2411
sV\u53f0\u6d77
p302
I3621
sV\u9999\u6e2f
p303
I543
sV\u519b\u6c11\u5171\u5efa\u70b9
p304
I3692
sV\u540e\u8005
p305
I254
sV\u666e\u901a\u8bdd
p306
I2720
sV\u663e\u5f97
p307
I392
sV\u5171\u8ba1
p308
I255
sV\u8fd8\u6b3e
p309
I1290
sV\u683c\u5f0f
p310
I1611
sV\u524d\u901f
p311
I369
sV\u7a81\u51fa
p312
I397
sV\u505a\u5230
p313
I548
sV\u7fa4\u4f53
p314
I1989
sV\u767e\u5f3a
p315
I2011
sV\u62ff\u51fa
p316
I2524
sV\u9ad8\u804c
p317
I1468
sV\u8c03\u8282
p318
I747
sV\u5b66\u4e60
p319
I558
sV\u5168\u90e8
p320
I764
sV\u5f15\u7533
p321
I3098
sV\u5361
p322
I1119
sV\u520a\u8f7d
p323
I757
sV\u5b9e\u65bd
p324
I759
sV\u5417\u5561
p325
I1985
sV\u82b1\u8d39
p326
I401
sV\u4f8b\u53e5
p327
I3081
sV\u5206\u7c7b
p328
I3011
sV\u6ee1\u8db3
p329
I646
sV\u9e64\u58c1
p330
I122
sV\u59d0\u59d0
p331
I3442
sV\u670d\u52a1\u8bbe\u65bd
p332
I2842
sV\u7fa4\u4f17
p333
I869
sV\u9a7b
p334
I2756
sV\u53c2\u4e0e\u5ea6
p335
I1225
sV\u62a5\u9053
p336
I773
sV\u5ba1\u8ba1
p337
I1811
sV\u8bad\u7ec3
p338
I3101
sV\u4e89
p339
I2538
sV\u5f85\u9047
p340
I578
sV\u53e4\u94b1\u5e01
p341
I3323
sV\u5403
p342
I2199
sV\u9002\u5e94
p343
I370
sV\u60e8\u8d25
p344
I2583
sV\u60a3\u8005
p345
I1954
sV\u53cd\u8230\u5bfc\u5f39
p346
I3612
sV\u6253\u542c
p347
I2703
sV\u6258\u798f
p348
I3019
sV\u82b1
p349
I594
sV\u56de\u843d
p350
I1168
sV\u540e\u6765\u8005
p351
I592
sV\u5f15\u53d1
p352
I791
sV\u6fb3\u5f69
p353
I2299
sV\u529f\u592b
p354
I2436
sV\u906d\u5230
p355
I3396
sV\u8ba1\u7b97
p356
I310
sV\u901a\u8baf\u5458
p357
I2889
sV\u8bc1\u5238
p358
I1216
sV\u53cc\u65b9
p359
I337
sV\u6c11\u65cf
p360
I2209
sV\u57c3\u53ca
p361
I2732
sV\u5382\u5546
p362
I1133
sV\u6295\u653e
p363
I801
sV\u75c7\u7ed3
p364
I1379
sV\u63a2\u7d22
p365
I3053
sV\u5165\u7761
p366
I2168
sV\u6548\u5e94
p367
I1001
sV\u5bcc\u58eb
p368
I2697
sV\u5b50
p369
I1003
sV\u62db\u8058\u542f\u4e8b
p370
I3278
sV\u65e0\u529b
p371
I423
sV\u52a0\u6cb9
p372
I2442
sV\u5360
p373
I614
sV\u8dd1\u9053
p374
I2934
sV\u5386\u5e74
p375
I2798
sV\u6253\u9020
p376
I3236
sV\u6212\u70df
p377
I2276
sV\u53e5\u5b50
p378
I3032
sV\u8003\u573a
p379
I2953
sV\u5206\u5e03
p380
I2169
sV\u8d74
p381
I1249
sV\u6d4e\u5357
p382
I3358
sV\u97e9\u56fd\u73b0\u4ee3
p383
I888
sV\u7740\u9646
p384
I1774
sV\u6574\u7406
p385
I3147
sV\u76d8\u65cb
p386
I1791
sV\u8d70\u8fdb
p387
I624
sV\u4e07\u7edc
p388
I1964
sV\u6dfb\u4e71
p389
I2473
sV\u884c\u9a76
p390
I446
sV\u9884\u671f
p391
I315
sV\u94f6\u884c\u4e1a\u52a1
p392
I1397
sV\u63a7\u80a1
p393
I887
sV\u9646\u98ce
p394
I165
sV\u5317\u6b27
p395
I2232
sV\u5929\u5b89\u95e8\u5e7f\u573a
p396
I2535
sV\u6297\u65e5\u6218\u4e89
p397
I3370
sV\u5927\u8111
p398
I2235
sV\u6797\u80af
p399
I1045
sV\u610f\u8bc6
p400
I658
sV\u5b66\u4f1a
p401
I2955
sV\u9488\u5bf9\u6027
p402
I3175
sV\u540c\u4e8b
p403
I1406
sV\u652f
p404
I1879
sV\u6289\u62e9
p405
I459
sV\u5173\u952e\u5b57
p406
I1663
sV\u5f62\u6210
p407
I127
sV\u4fb5\u6743
p408
I1573
sV\u770b\u6cd5
p409
I672
sV\u4e1c\u68ee
p410
I3627
sV\u6240\u957f
p411
I464
sV\u5f39\u9053\u5bfc\u5f39
p412
I3647
sV\u6743
p413
I2102
sV\u519b\u4e8b
p414
I1604
sV\u6536\u53d6
p415
I341
sV\u654c
p416
I3513
sV\u751f\u5b58
p417
I131
sV\u83ab\u534e\u4f26
p418
I3372
sV\u73b0\u4ee3\u5316
p419
I3672
sV\u904d
p420
I3176
sV\u5f53\u65f6
p421
I2001
sV\u5bfc\u5f39
p422
I3465
sV\u4e09\u4e5d\u533b\u836f
p423
I1998
sV\u5c55
p424
I2745
sV\u4e09\u5206\u7403
p425
I2463
sV\u4e13\u5356\u5e97
p426
I649
sV\u4f01\u4e1a
p427
I139
sV\u536b\u751f\u5385
p428
I2059
sV\u9a6c\u9f99
p429
I2464
sV\u6df1\u5733\u5e02
p430
I2089
sV\u96fe\u5c9b
p431
I3651
sV\u9752\u6625
p432
I2150
sV\u7ea2\u73ab\u7470
p433
I3436
sV\u673a\u5668\u4eba
p434
I3665
sV\u75bc\u75db
p435
I1988
sV\u53f6\u7389\u537f
p436
I3433
sV\u8054\u5408
p437
I882
sV\u7406\u4e8b\u957f
p438
I1751
sV\u6027\u8d28
p439
I3132
sV\u915d\u917f
p440
I2485
sV\u5a92\u4ecb
p441
I1226
sV\u663e\u793a
p442
I199
sV\u91cd\u9022
p443
I2339
sV\u5bcc\u8c6a
p444
I1038
sV\u4f53\u5236
p445
I635
sV\u5fc5\u8003
p446
I3117
sV\u8eab\u4f53
p447
I680
sV\u5468\u672b
p448
I1536
sV\u5e7f\u64ad
p449
I1577
sV\u5e74\u524d
p450
I1935
sV\u601d\u8003
p451
I7
sV\u4f5b\u7f57\u4f26\u8428
p452
I2298
sV\u8bbe\u8ba1
p453
I163
sV\u5a07\u854a
p454
I3440
sV\u4e0d\u51fa
p455
I945
sV\u5468\u671f
p456
I902
sV\u62c9\u52a8
p457
I2723
sV\u5b66
p458
I2275
sV\u7a9d\u70b9
p459
I3257
sV\u76ee\u7779
p460
I3330
sV\u6295\u624b
p461
I2388
sV\u624b\u673a\u53f7\u7801
p462
I1077
sV\u533a
p463
I1235
sV\u96c6\u6563\u4e2d\u5fc3
p464
I2892
sV\u901a\u62a5
p465
I3572
sV\u8d22\u62a5
p466
I1549
sV\u80c3
p467
I2142
sV\u5e74\u521d
p468
I1239
sV\u8d2d\u9500
p469
I2046
sV\u5b9a\u7406
p470
I3141
sV\u6837\u5b50
p471
I3031
sV\u79d8\u5bc6
p472
I1587
sV\u589e\u5f3a
p473
I1492
sV\u6392\u9664
p474
I226
sV\u7f16\u8f91
p475
I478
sV\u5ba2\u6237
p476
I364
sV\u8425\u4e1a\u5385
p477
I1323
sV\u5ba2\u623f
p478
I2831
sV\u4fdd
p479
I231
sV\u521d\u6570
p480
I3149
sV\u56fd\u65d7
p481
I2530
sV\u7406\u60f3
p482
I1447
sV\u62e5\u6709
p483
I34
sV\u7ee7
p484
I954
sV\u7092\u4f5c
p485
I2501
sV\u5f70\u663e
p486
I188
sV\u4e91\u5357
p487
I2853
sV\u603b\u4f53\u89c4\u5212
p488
I1248
sV\u653b\u5982
p489
I3548
sV\u4e49\u52a1
p490
I1566
sV\u67e5\u627e
p491
I3468
sV\u53cc\u5411
p492
I2686
sV\u751f\u7269\u5236\u5242
p493
I1914
sV\u60f3\u8c61
p494
I1282
sV\u6444\u5f71
p495
I3428
sV\u89c2\u70b9
p496
I242
sV\u7edd\u6740
p497
I2379
sV\u6ca1\u6295
p498
I3269
sV\u8003
p499
I2940
sV\u8f74\u8ddd
p500
I413
sV\u9662\u6821
p501
I2904
sV\u4f4e\u7aef
p502
I991
sV\u5468\u8fb9\u56fd\u5bb6
p503
I2613
sV\u6218\u6597\u529b
p504
I3458
sV\u73b0\u5b9e
p505
I1457
sV\u4eba\u6b21
p506
I721
sV\u5de1\u903b\u8f66
p507
I880
sV\u4eba\u4eec
p508
I116
sV\u666e\u5409\u5c9b
p509
I2619
sV\u7edd\u75c7
p510
I1459
sV\u8bf4\u660e\u4e66
p511
I3485
sV\u9ad8\u6e05\u6670
p512
I1647
sV\u9636\u6bb5
p513
I724
sV\u52c7\u4e8e
p514
I1432
sV\u5c0f\u65f6
p515
I450
sV\u533b\u836f
p516
I1877
sV\u5e7f\u544a\u4e3b
p517
I1201
sV\u6218\u6cd5
p518
I3492
sV\u8fd4\u56de
p519
I2758
sV\u72b6\u6001
p520
I1105
sV\u50a8\u5b58
p521
I2261
sV\u811a
p522
I2129
sV\u8bd5\u9898
p523
I3090
sV\u5218\u6587\u8f89
p524
I1044
sV\u5929
p525
I2801
sV\u7ea7\u522b
p526
I1779
sV\u77f3
p527
I2763
sV\u6253\u538b
p528
I749
sV\u7b54\u6848
p529
I3092
sV\u7406\u6027
p530
I56
sV\u6392\u5ea7\u4f4d
p531
I398
sV\u91c7\u7528
p532
I399
sV\u73b0\u4ee3\u4eba
p533
I2822
sV\u58eb\u5175
p534
I3656
sV\u5168\u56fd
p535
I61
sV\u53d1\u51fa
p536
I1345
sV\u5929\u4ef7
p537
I264
sV\u62c5\u4fdd
p538
I2084
sV\u57ce\u533a
p539
I864
sV\u539f\u59cb
p540
I1116
sV\u7d22\u7231
p541
I1538
sV\u4f11\u95f2\u6e38
p542
I2789
sV\u81ea\u4fe1
p543
I1118
sV\u7814\u4fee
p544
I565
sV\u6e90\u6cc9
p545
I1392
sV\u601d\u60f3
p546
I2189
sV\u62e8\u6253
p547
I3209
sV\u7c73\u5170
p548
I2326
sV\u4f20\u7403
p549
I2444
sV\u8fd0\u7ba1\u5c40
p550
I849
sV\u98ce\u5c1a
p551
I192
sV\u503e\u57ce
p552
I3423
sV\u65b9\u5411
p553
I406
sV\u7ea2\u519b
p554
I3583
sV\u6539\u9769
p555
I576
sV\u8bbe\u7f6e
p556
I2182
sV\u6587\u79d1
p557
I2952
sV\u81ea\u4e3b
p558
I947
sV\u80cc\u666f
p559
I78
sV\u6297\u708e\u836f
p560
I1931
sV\u5b9e\u5175
p561
I3551
sV\u9a6c\u7956
p562
I3609
sV\u7559
p563
I2559
sV\u9ec4\u91d1\u65f6\u95f4
p564
I375
sV\u4ee4\u4eba
p565
I414
sV\u767d\u6d41\u82cf
p566
I3418
sV\u82f1\u6587
p567
I1629
sV\u5165\u72f1
p568
I899
sV\u51fa\u8272
p569
I987
sV\u79ef\u7d2f
p570
I87
sV\u8bca\u7597\u8d39
p571
I2066
sV\u5339\u914d
p572
I3293
sV\u63a8\u4ecb
p573
I2606
sV\u7b79\u7801
p574
I2295
sV\u5360\u6709
p575
I1297
sV\u98df\u5802
p576
I3077
sV\u8d5b\u5b63
p577
I2435
sV\u652f\u51fa
p578
I794
sV\u51fa\u79df\u8f66
p579
I296
sV\u671d\u9c9c
p580
I2846
sV\u51fa\u7248\u754c
p581
I3333
sV\u5168\u7701
p582
I2058
sV\u8c03\u6574
p583
I426
sV\u5b9e\u6218
p584
I3536
sV\u573a\u666f
p585
I2523
sV\u4e16\u754c\u676f
p586
I1637
sV\u6291\u5236
p587
I1966
sV\u5f25\u8865
p588
I429
sV\u8fb9\u7f18\u5316
p589
I1503
sV\u6587\u7ae0
p590
I21
sV\u673a\u68b0\u5316
p591
I3695
sV\u5730\u94c1
p592
I2764
sV\u4e00\u4f53
p593
I3595
sV\u90e8\u95e8
p594
I194
sV\u97e9\u4e2d
p595
I2660
sV\u6210\u763e\u6027
p596
I1932
sV\u8054\u52a8
p597
I810
sV\u5c0f\u578b\u8f66
p598
I1006
sV\u5168\u9762
p599
I180
sV\u7b7e\u8ba2
p600
I1244
sV\u5e94\u8be5
p601
I305
sV\u4f5c
p602
I106
sV\u5e08\u8d44
p603
I3172
sV\u6e38\u89c8
p604
I2781
sV\u51b0\u5c71
p605
I1386
sV\u8e0f\u4e0a
p606
I2799
sV\u507f\u8fd8
p607
I1064
sV\u9650\u5b9a
p608
I2092
sV\u7968
p609
I821
sV\u5546\u573a
p610
I2802
sV\u6c5f\u5fc3\u6d32
p611
I2836
sV\u60f3\u8d77
p612
I2532
sV\u9996\u5e2d
p613
I1281
sV\u4ea4\u5f80
p614
I1496
sV\u8d70
p615
I1065
sV\u5199\u51fa
p616
I3048
sV\u6247\u5f62
p617
I2684
sV\u56de\u6263
p618
I2052
sV\u58f0\u8baf
p619
I3212
sV\u4ee3\u8868
p620
I1253
sV\u671f\u671b
p621
I1395
sV\u6234\u5c14
p622
I1551
sV\u4f53\u73b0
p623
I625
sV\u6d88\u5316
p624
I2214
sV\u89c2\u5149
p625
I2617
sV\u4e1c\u65b9\u6587\u5316
p626
I160
sV\u98df\u5e9c
p627
I3222
sV\u66fc\u6862
p628
I3447
sV\u53d6\u5f97
p629
I837
sV\u65d7\u5e1c
p630
I3576
sV\u672c\u571f
p631
I1202
sV\u529b\u4e89
p632
I2480
sV\u95ee
p633
I765
sV\u8bc4\u59d4
p634
I1715
sV\u5f69\u8272\u7247
p635
I3441
sV\u535a\u7269\u9986
p636
I3325
sV\u79fb\u52a8
p637
I452
sV\u7814\u8ba8\u4f1a
p638
I1404
sV\u9884\u8ba2
p639
I2823
sV\u7763\u4fc3
p640
I2916
sV\u6c88\u9633
p641
I2336
sV\u5927\u5b66\u672c\u79d1
p642
I3169
sV\u589e\u81f3
p643
I2620
sV\u571f\u5730
p644
I1233
sV\u4eb2
p645
I3244
sV\u8eab\u4ef7
p646
I2597
sV\u4ee3\u7406\u5f8b\u5e08
p647
I1567
sV\u8d1d\u5e01
p648
I3322
sV\u540e\u671f
p649
I2362
sV\u53c2\u8d5b
p650
I1780
sV\u672c\u573a
p651
I2306
sV\u8282\u6cb9
p652
I366
sV\u86cb\u767d\u8d28
p653
I2242
sV\u7279\u7ea6\u8bb0\u8005
p654
I2735
sV\u4e2d\u7ea7\u8f66
p655
I466
sV\u4e2d\u5956\u4eba
p656
I3307
sV\u5acc\u7591
p657
I2331
sV\u76ee\u7684
p658
I63
sV\u589e\u957f\u52bf\u5934
p659
I1921
sV\u8425\u517b\u7269\u8d28
p660
I2245
sV\u6c99\u5c14\u514b
p661
I2334
sV\u5916\u56fd\u6e38\u5ba2
p662
I2716
sV\u8d5b
p663
I2366
sV\u5ba3\u79f0
p664
I335
sV\u8363\u83b7
p665
I3237
sV\u9648\u8d85\u82f1
p666
I2779
sV\u5f97\u4ee5
p667
I1674
sV\u56e2
p668
I2751
sV\u7b56\u7565
p669
I1159
sV\u91cd\u91cf
p670
I1676
sV\u6c42\u89e3
p671
I3126
sV\u6c34\u5e73
p672
I141
sV\u836f
p673
I1869
sV\u8499\u53e4\u56fd
p674
I2640
sV\u4f18\u52bf
p675
I147
sV\u62c5\u4efb
p676
I1066
sV\u53d7\u5230
p677
I643
sV\u6311\u9009
p678
I1165
sV\u5bf9\u7b56
p679
I3113
sV\u6b63\u5b97
p680
I3227
sV\u63a8\u8350
p681
I1724
sV\u8003\u524d
p682
I3020
sV\u6301\u4e45\u6218
p683
I2962
sV\u4e0d\u53ef
p684
I1166
sV\u624b\u672f
p685
I1930
sV\u59da\u660e
p686
I2426
sV\u822a\u73ed
p687
I2701
sV\u624b\u673a
p688
I1071
sV\u513f\u7ae5
p689
I481
sV\u8f66\u8eab
p690
I351
sV\u76f4\u89c2
p691
I3123
sV\u5317\u4e9a
p692
I2021
sV\u770b\u4e66
p693
I2921
sV\u627f\u529e
p694
I2010
sV\u69b4\u5f39\u70ae
p695
I3537
sV\u8bfa\u57fa\u4e9a
p696
I1528
sV\u610f\u4e49
p697
I1205
sV\u7f8e\u5143\u5151
p698
I906
sV\u5317\u4eac
p699
I214
sV\u5929\u6c14
p700
I2572
sV\u53cd\u6050
p701
I3652
sV\u51a0\u519b\u8054\u8d5b
p702
I2550
sV\u529e\u7406
p703
I518
sV\u672c\u94b1
p704
I101
sV\u97e9\u6d41
p705
I2643
sV\u5168\u7403
p706
I179
sV\u7f8e\u56fd\u5728\u7ebf
p707
I1585
sV\u4eba\u624d\u9700\u6c42
p708
I3303
sV\u5bbe\u9986
p709
I508
sV\u626c\u7279
p710
I1319
sV\u7ba1\u7406\u4e2d\u5fc3
p711
I2360
sV\u5546\u4e1a\u94f6\u884c
p712
I1078
sV\u4e2d\u6587\u7248
p713
I2258
sV\u5fae\u91cf
p714
I2144
sV\u63a5\u89e6
p715
I2146
sV\u7535\u8111
p716
I361
sV\u8f66\u4efd
p717
I699
sV\u50cf
p718
I1322
sV\u7ec6\u8282
p719
I227
sV\u53d1\u73b0
p720
I244
sV\u8d3f\u8d42
p721
I2060
sV\u8ddd
p722
I1798
sV\u4ea7\u7269
p723
I1085
sV\u7ea2\u5305
p724
I2056
sV\u76ae\u84ec
p725
I2400
sV\u57fa\u91d1\u4f1a
p726
I1801
sV\u4e2d\u79cb
p727
I3365
sV\u65b9\u7a0b\u7ec4
p728
I3152
sV\u6cfc\u6c34\u8282
p729
I2894
sV\u6210\u5458
p730
I1850
sV\u4f5c\u597d
p731
I3189
sV\u635f\u5931
p732
I1854
sV\u9650\u989d
p733
I236
sV\u5ef6\u7f13
p734
I1912
sV\u6295\u8d44\u8005
p735
I1185
sV\u4e95
p736
I3159
sVH\u80a1
p737
I1857
sV\u6e23\u6253\u94f6\u884c
p738
I1377
sV\u8d54\u507f
p739
I284
sV\u65f6\u4ee3
p740
I525
sV\u63a8\u5e7f
p741
I1098
sV\u5e05\u514b
p742
I1924
sV\u98ce\u666f\u533a
p743
I2869
sV\u8d85\u8fc7
p744
I246
sV\u8f66\u4e3b
p745
I247
sV\u7545\u9500
p746
I962
sV\u6807\u51c6
p747
I159
sV\u4e3e\u63aa
p748
I3527
sV\u5c11\u6570\u6c11\u65cf
p749
I2859
sV\u4f7f\u7528
p750
I384
sV\u80a1\u4ef7
p751
I1384
sV\u52a8\u8361
p752
I674
sV\u8d1d
p753
I1571
sV\u6536\u573a
p754
I2604
sV\u5229\u6da6
p755
I49
sV\u7f51\u6c11
p756
I1260
sV\u5916\u5f62
p757
I390
sV\u804c\u80fd
p758
I3301
sV\u90e8\u961f
p759
I3494
sV\u904d\u5e03
p760
I2753
sV\u5468\u8fb9\u5730\u533a
p761
I731
sV\u4e0a\u7f34
p762
I2049
sV\u9aa8
p763
I2174
sV\u5f52\u7eb3
p764
I3138
sV\u76f8\u9047
p765
I2515
sV\u611f\u5230
p766
I1687
sV\u8bd5\u9a8c
p767
I1609
sV\u6cd5\u5f8b
p768
I257
sV\u5339
p769
I363
sV\u8f6c\u901f\u8868
p770
I396
sV\u94f6\u5ddd
p771
I2879
sV\u7533\u5965
p772
I2520
sV\u6253\u51fb
p773
I744
sV\u8fde\u7eed\u5267
p774
I1614
sV\u6218\u4e89
p775
I3586
sV\u7a0b\u5ea6
p776
I539
sV\u591a\u7279\u8499\u5fb7
p777
I2311
sV\u95f4\u9699
p778
I3561
sV\u4e0a\u7f51
p779
I1346
sV\u592a\u9633
p780
I2656
sV\u7f51
p781
I2875
sV\u57f9\u517b
p782
I1347
sV\u7ebd\u5e26
p783
I2659
sV\u4e73\u7cd6\u9176
p784
I2184
sV\u660e\u5e74
p785
I972
sV\u627f\u62c5
p786
I1453
sV\u5730\u4f4d
p787
I1695
sV\u7761
p788
I2187
sV\u82f1\u56fd\u5e7f\u64ad\u516c\u53f8
p789
I1672
sV\u4ff1\u4e50\u90e8
p790
I2499
sV\u8096\u6b63\u6743
p791
I2033
sV\u7ed3\u675f
p792
I928
sV\u547d\u8fd0
p793
I1351
sV\u62a5\u544a
p794
I760
sV\u7a0b\u5e8f
p795
I443
sV\u4ea7\u751f
p796
I1369
sV\u5c04\u51fb
p797
I1625
sV\u6362\u53d1
p798
I3704
sV\u68cb\u575b
p799
I2364
sV\u8001\u603b
p800
I650
sV\u50a8\u5907
p801
I2598
sV\u4eba\u6c11\u5e01
p802
I941
sV\u5a31\u4e50
p803
I1627
sV\u529b\u6c14
p804
I1362
sV\u6c11\u8425\u4f01\u4e1a
p805
I3299
sV\u5bb6\u5ead
p806
I158
sV\u56f4\u68cb
p807
I2375
sV\u4e0a\u5e8a
p808
I2202
sV\u547d\u4e2d
p809
I2407
sV\u6708\u7403
p810
I1778
sV\u4f9b
p811
I1125
sV\u5386\u7a0b
p812
I2910
sV\u65e0\u7ebf
p813
I1683
sV\u5496\u5561
p814
I554
sV\u8003\u53e4\u5b66
p815
I1719
sV\u7761\u89c9
p816
I2278
sV\u503e\u5411
p817
I2106
sV\u7f57\u9a6c
p818
I2296
sV\u6218\u8f66
p819
I3462
sV\u65e0\u5e8f
p820
I1266
sV\u51ac\u5929
p821
I2207
sV\u94c1\u7532
p822
I3502
sV\u5973\u4eba
p823
I3429
sV\u8f66\u8f86
p824
I421
sV\u90ae\u5e01
p825
I3319
sV\u6570\u636e
p826
I1131
sV\u7f3a\u5c11
p827
I425
sV\u82f9\u679c
p828
I1376
sV\u7b14\u8bb0\u672c
p829
I1545
sV\u6298\u4e8e
p830
I3136
sV\u6536\u5165
p831
I802
sV\u7ed3\u5a5a
p832
I2708
sV\u611f\u53d7
p833
I637
sV\u7c73\u52d2
p834
I2437
sV\u6027\u80fd
p835
I430
sV\u6bcf\u9898
p836
I3173
sV\u6210\u957f
p837
I1382
sV\u91cf
p838
I1639
sV\u8bf4\u9053
p839
I301
sV\u529b\u6c42
p840
I1383
sV\u6539\u8fdb
p841
I3467
sV\u5954
p842
I609
sV\u81ea\u8c6a
p843
I2528
sV\u89e3\u51b3
p844
I611
sV\u8fdb
p845
I2441
sV\u6e38\u8bf4
p846
I1903
sV\u8981\u7d20
p847
I3570
sV\u5ef6\u5e03
p848
I1247
sV\u6089\u5c3c
p849
I2776
sV\u5546\u54c1
p850
I1102
sV\u627f\u53d7
p851
I711
sV\u4e1a\u52a1
p852
I110
sV\u65e5\u5b50
p853
I2924
sV\u8f70
p854
I3530
sV\u5e99\u4f1a
p855
I3247
sV\u5411\u5c0f\u8881
p856
I3286
sV\u8ddf\u4e0d\u4e0a
p857
I1499
sV\u5e97
p858
I495
sV\u6280\u80fd
p859
I787
sV\u6587\u5b57
p860
I3017
sV\u4e0a\u5e1d
p861
I622
sV\u5f8b\u5e08
p862
I1851
sV\u90ae\u4ef6\u5730\u5740
p863
I1143
sV\u65b9\u9762
p864
I118
sV\u540d
p865
I1707
sV\u5ef6\u7eed
p866
I1012
sV\u6597\u4e89
p867
I1867
sV\u9636\u68af
p868
I1933
sV\u6c47\u7387
p869
I926
sV\u51fa\u7248\u7269
p870
I1568
sV\u6d89\u53ca
p871
I316
sV\u8db3\u91cf
p872
I2227
sV\u91cd\u73b0
p873
I1291
sV\u76d1\u63a7
p874
I843
sV\u76f8\u5173
p875
I317
sV\u957f\u6625
p876
I2581
sV\u4e3e\u62a5
p877
I847
sV\u4e0a\u5e02
p878
I454
sV\u4e3b\u4f53
p879
I1271
sV\u6e29\u6587\u5c14\u96c5
p880
I633
sV\u7d2f\u8ba1
p881
I2878
sV\u7535\u5b50\u7248
p882
I1558
sV\u8c03\u67e5
p883
I170
sV\u8003\u53e4
p884
I1727
sV\u52a8\u624b
p885
I3129
sV\u4e0b\u53d1
p886
I2054
sV\u57c3\u5f17\u987f\u961f
p887
I2594
sV\u897f\u65b9\u4eba
p888
I2237
sV\u672c\u7530
p889
I462
sV\u5b9e\u60e0
p890
I2596
sV\u4eba\u5458
p891
I655
sV\u627f\u5305
p892
I1245
sV\u8857\u6d25\u53e3
p893
I2857
sV\u5448\u73b0\u51fa
p894
I2649
sV\u7ef3\u5b50
p895
I3142
sV\u9632\u7ebf
p896
I3549
sV\u9f13\u52b1
p897
I1416
sV\u8f66\u8f7d
p898
I469
sV\u547d\u4ee4
p899
I3515
sV\u8ba4\u4e3a
p900
I137
sV\u80af\u5b9a
p901
I138
sV\u4e0b\u53bb
p902
I1520
sV\u5e74\u5185
p903
I1874
sV\u6765\u5230
p904
I2696
sV\u53d1\u5c04\u70b9
p905
I1799
sV\u8bb0\u5f97
p906
I586
sV\u7ecf\u6d4e
p907
I475
sV\u5165\u9009
p908
I1745
sV\u5ef6\u5e86
p909
I873
sV\u4e3b\u6f14
p910
I3406
sV\u8fdb\u653b
p911
I2466
sV\u6fb3\u5927\u5229\u4e9a
p912
I2791
sV\u6539\u5584
p913
I2760
sV\u5927\u4e8b\u8bb0
p914
I3332
sV\u6d66\u53e3
p915
I2840
sV\u6380\u8d77
p916
I1429
sV\u7f8e\u98df
p917
I2900
sV\u53f8
p918
I2872
sV\u56fe
p919
I3646
sV\u8868\u60c5
p920
I660
sV\u878d\u5165
p921
I2376
sV\u517c\u5177
p922
I154
sV\u7537\u7ae5
p923
I2123
sV\u5200\u5e01
p924
I3318
sV\u5f71\u7247
p925
I1641
sV\u66fe\u6797\u5802
p926
I491
sV\u51fd\u6570
p927
I3124
sV\u516c\u6c11
p928
I2615
sV\u6574\u4f53
p929
I204
sV\u7236\u6bcd
p930
I2190
sV\u63d0\u8f66
p931
I348
sV\u5927\u7eb2
p932
I3080
sV\u65e5\u524d
p933
I12
sV\u53d7\u4f53
p934
I1993
sV\u4e09\u56fd
p935
I2351
sV\u4e16\u535a\u56ed
p936
I2353
sV\u73b0\u573a
p937
I2385
sV\u901a\u77e5
p938
I2050
sV\u5371\u673a
p939
I1951
sV\u8868\u6f14
p940
I2856
sV\u6d3b\u8dc3
p941
I1074
sV\u5168\u7a0b
p942
I1075
sV\u8d62\u5f97
p943
I1787
sV\u4e0b\u534a\u5e74
p944
I950
sV\u9971\u548c\u5ea6
p945
I807
sV\u5916\u51fa
p946
I2728
sV\u6253\u5f00
p947
I506
sV\u4e0b\u5c5e
p948
I1441
sV\u6f5c\u5728
p949
I951
sV\u603b\u7ecf\u7406
p950
I1269
sV\u8d22\u4ea7
p951
I222
sV\u670d\u52a1
p952
I511
sV\u7f6e\u4e8e
p953
I2143
sV\u8bb0\u5f55
p954
I1149
sV\u89e3\u7ea6
p955
I2593
sV\u5fc3\u60c5
p956
I2927
sV\u5907\u6218
p957
I2494
sV\u8f6c\u5316
p958
I700
sV\u7f16\u6392
p959
I2862
sV\u62b5\u8fbe
p960
I2576
sV\u79e9
p961
I3153
sV\u6ca1\u89c1
p962
I953
sV\u7f5a\u7bee
p963
I2399
sV\u4e0d\u5229\u4e8e
p964
I2104
sV\u6709\u671b
p965
I1889
sV\u5e73\u53f0
p966
I1091
sV\u8499\u53e4
p967
I2677
sV\u610f\u601d
p968
I1328
sV\u7403\u5458
p969
I2542
sV\u4e09\u4e5d\u751f\u5316
p970
I2006
sV\u5976
p971
I2156
sV\u6c11\u4e8b
p972
I1848
sV\u8bbe
p973
I1574
sV\u5b89\u5168\u6027
p974
I198
sV\u76f8\u5e94
p975
I379
sV\u62a5\u7eb8
p976
I2787
sV\u5904\u4e8e
p977
I696
sV\u534f\u8bae
p978
I1227
sV\u8868\u8fbe
p979
I1862
sV\u5904\u4e8b
p980
I526
sV\u6253\u51fa
p981
I2553
sV\u6b65\u5165
p982
I1956
sV\u5fc3\u6001
p983
I2167
sV\u7855\u58eb
p984
I2018
sV\u5954\u9a70
p985
I530
sV\u5206\u961f
p986
I722
sV\u80cc\u8bf5
p987
I2989
sV\u6218\u80dc
p988
I2409
sV\u4ee3\u6570
p989
I3122
sV\u730e\u5934
p990
I1462
sV\u8f6c\u53d8
p991
I538
sV\u9970
p992
I3409
sV\u6cb3\u5357\u7701
p993
I1722
sV\u5185\u5bb9\u6458\u8981
p994
I1608
sV\u501a\u9760
p995
I1952
sV\u8bbe\u6709
p996
I3230
sV\u540d\u5b57
p997
I1340
sV\u6218\u5f79\u5b66
p998
I3598
sV\u5f31\u70b9
p999
I3109
sV\u91d1\u878d
p1000
I58
sV\u5e02\u573a\u524d\u666f
p1001
I1110
sV\u5236\u9020\u5546
p1002
I533
sV\u505a\u51fa
p1003
I439
sV\u4e1c\u839e
p1004
I3274
sV\u4fdd\u969c
p1005
I175
sV\u53c2\u4e0e
p1006
I1114
sV\u5e74\u5e95
p1007
I65
sV\u8001\u864e
p1008
I3660
sV\u94f6\u884c\u8d37\u6b3e
p1009
I1050
sV\u65e0\u5173
p1010
I267
sV\u8bb0\u5fc6
p1011
I560
sV\u80fd\u6362
p1012
I2595
sV\u5f53\u4ee3
p1013
I2864
sV\u65b9\u7a0b
p1014
I3144
sV\u5408\u6cd5
p1015
I265
sV\u58f0\u660e
p1016
I294
sV\u4ee3\u6536
p1017
I1129
sV\u4ea4\u5230
p1018
I3183
sV\u7edf\u4e00
p1019
I756
sV\u8bcd\u7ec4
p1020
I3107
sV\u8bb2\u7a76
p1021
I566
sV\u65b0\u95fb\u5b66
p1022
I1697
sV\u5bfc\u5411
p1023
I976
sV\u5e7f\u5dde\u5e02
p1024
I1063
sV\u63d0\u4f9b
p1025
I195
sV\u95fd\u6c5f
p1026
I3641
sV\u590d\u5408
p1027
I1280
sV\u7acb\u4f53
p1028
I3343
sV\u654c\u9635
p1029
I3533
sV\u4e0b\u5c97
p1030
I405
sV\u5783\u573e
p1031
I2766
sV\u5e74\u5ea6
p1032
I980
sV\u6210\u7acb
p1033
I574
sV\u8b66\u544a
p1034
I407
sV\u72fc
p1035
I2568
sV\u8881
p1036
I774
sV\u51b3\u4e0d\u80fd
p1037
I2903
sV\u6162\u6027\u75c5
p1038
I2256
sV\u4e2d\u4fc4
p1039
I2609
sV\u8fc7\u53bb
p1040
I215
sV\u5c5e\u4e8e
p1041
I288
sV\u539f\u7406
p1042
I3517
sV\u5f3a\u5236
p1043
I289
sV\u4ef7\u683c
p1044
I290
sV\u9662\u65b9
p1045
I2065
sV\u641e
p1046
I1483
sV\u6559\u7ec3\u673a
p1047
I3654
sV\u521b\u65b0
p1048
I1127
sV\u6218
p1049
I1941
sV\u6307\u6570
p1050
I1170
sV\u7ba1\u7406\u8005
p1051
I1370
sV\u8054\u7ed3
p1052
I1372
sV\u4fe1\u606f\u5316
p1053
I3553
sV\u8db3\u5f69
p1054
I2297
sV\u8bb2\u5ea7
p1055
I2997
sV\u53d1\u5c04
p1056
I1789
sV\u5927\u9152\u5e97
p1057
I3349
sV\u5e84\u5bb6
p1058
I2303
sV\u65e5\u65b0\u6708\u5f02
p1059
I2517
sV\u5468\u65e5
p1060
I2419
sV\u6743\u5a01\u90e8\u95e8
p1061
I2646
sV\u65c5\u6e38
p1062
I2641
sV\u9700\u6c42
p1063
I545
sV\u6559\u6388
p1064
I97
sV\u6b63\u5728
p1065
I1378
sV\u5168\u4e16\u754c
p1066
I1636
sV\u70df\u763e
p1067
I2274
sV\u7ec3\u4e60
p1068
I2252
sV\u610f\u613f
p1069
I1177
sV\u63a5\u66ff
p1070
I1693
sV\u51fa\u6e38
p1071
I2786
sV\u6240\u5f97
p1072
I1053
sV\u8463\u4e8b\u957f
p1073
I921
sV\u62db\u5f85\u4f1a
p1074
I3382
sV\u53d1\u5c55
p1075
I108
sV\u533b\u9662
p1076
I1934
sV\u53c9
p1077
I3632
sV\u8d5b\u573a
p1078
I2405
sV\u6211\u519b
p1079
I3525
sV\u9002\u5e94\u6027
p1080
I3086
sV\u5c71\u897f
p1081
I1747
sV\u4e16\u754c\u536b\u751f\u7ec4\u7ec7
p1082
I2263
sV\u6536\u5f55
p1083
I3345
sV\u5173\u95ed
p1084
I1646
sV\u730e\u98df
p1085
I1391
sV\u76d1\u6d4b
p1086
I2891
sV\u4e8b\u5b9e
p1087
I115
sV\u4e8b\u5b9c
p1088
I1859
sV\u5f71\u54cd\u529b
p1089
I1649
sV\u7b14\u8bb0
p1090
I3165
sV\u6307
p1091
I568
sV\u65b0\u9a6c\u6cf0
p1092
I2690
sV\u9002\u5408
p1093
I2225
sV\u53c2\u8003
p1094
I2555
sV\u5f3a\u52bf
p1095
I161
sV\u51fa\u4efb
p1096
I1680
sV\u529e\u8bc1
p1097
I845
sV\u671f
p1098
I632
sV\u6295\u4fdd
p1099
I321
sV\u98ce\u5149
p1100
I2626
sV\u589e\u6dfb
p1101
I1738
sV\u7fa4
p1102
I2713
sV\u4f24\u75c5
p1103
I2486
sV\u670d\u88c5\u8bbe\u8ba1
p1104
I2636
sV\u5b9c
p1105
I2231
sV\u7406\u8d22
p1106
I1208
sV\u5173\u952e
p1107
I1410
sV\u7537\u5b50
p1108
I1664
sV\u559c\u6b22
p1109
I193
sV\u592a\u5947
p1110
I3094
sV\u547d\u4e2d\u7387
p1111
I2391
sV\u5de1\u56de
p1112
I1916
sV\u5e7f\u897f
p1113
I3689
sV\u53f0\u6e7e\u5f53\u5c40
p1114
I3608
sV\u9884\u6d4b
p1115
I665
sV\u672c\u5468\u4e00
p1116
I937
sV\u88ab\u4fdd\u9669\u4eba
p1117
I1285
sV\u675c\u7edd
p1118
I865
sV\u53e4\u4ee3
p1119
I3334
sV\u7f8e\u56fd
p1120
I647
sV\u63d0\u4ea4
p1121
I1907
sV\u72fc\u5821
p1122
I2539
sV\u8fd0\u52a8
p1123
I417
sV\u6b62\u75db\u836f
p1124
I1947
sV\u4fa7\u91cd
p1125
I3006
sV\u5178\u578b
p1126
I1983
sV\u51fa\u4e8e
p1127
I2090
sV\u9152\u5e97
p1128
I2744
sV\u82f1\u8bed\u4e13\u4e1a
p1129
I3010
sV\u7cbe\u795e
p1130
I2047
sV\u5229\u82d1
p1131
I3224
sV\u95e8
p1132
I3154
sV\u57ce\u5e02
p1133
I875
sV\u62d3\u5c55
p1134
I142
sV\u6279\u51c6
p1135
I878
sV\u505a\u597d
p1136
I2762
sV\u8bc4\u8bba
p1137
I1764
sV\u6d4b\u8bd5
p1138
I2939
sV\u601d\u8def
p1139
I1186
sV\u8bfe
p1140
I3016
sV\u542c\u542c
p1141
I3069
sV\u9a7e\u9a76\u5458
p1142
I343
sV\u533b\u52a1\u4eba\u5458
p1143
I2044
sV\u8d1f\u8d23\u4eba
p1144
I1
sV\u6821\u70ae
p1145
I3518
sV\u63d0\u8d77
p1146
I1813
sV\u53ef\u9009
p1147
I3200
sV\u771f\u9898
p1148
I2943
sV\u5e03\u5c40
p1149
I679
sV\u56e2\u4f53
p1150
I2081
sV\u706b\u70ae
p1151
I3481
sV\u547d\u9898
p1152
I3128
sV\u540d\u79f0
p1153
I3208
sV\u6d8c\u73b0
p1154
I1195
sV\u65e0\u56fd\u754c
p1155
I2631
sV\u7ee7\u7eed
p1156
I673
sV\u6e05\u7b97
p1157
I1278
sV\u5305\u62ec
p1158
I686
sV\u4fdd\u9669\u4e1a
p1159
I211
sV\u9752\u7750
p1160
I1875
sV\u57c3\u5f17\u987f
p1161
I2589
sV\u6d41\u52a8
p1162
I2633
sV\u9500\u552e
p1163
I354
sV\u539f\u5730
p1164
I1437
sV\u8230
p1165
I948
sV\u96c6\u56e2
p1166
I20
sV\u4f30\u8ba1
p1167
I949
sV\u751f\u52a8
p1168
I2788
sV\u7fb9
p1169
I1960
sV\u5c0f\u8881
p1170
I3284
sV\u9996\u671f
p1171
I2087
sV\u77f3\u6cb9\u4ef7\u683c
p1172
I675
sV\u4f5c\u7528
p1173
I536
sV\u65c5\u884c
p1174
I1586
sV\u673a\u7968
p1175
I3241
sV\u573a\u4f4d
p1176
I2599
sV\u5d07\u5c1a
p1177
I513
sV\u53d1
p1178
I2028
sV\u63a8\u52a8
p1179
I1178
sV\u9ad8\u65b0\u6280\u672f
p1180
I25
sV\u5907\u8003
p1181
I2931
sV\u6c34\u51c6
p1182
I952
sV\u62db
p1183
I2396
sV\u8d5a
p1184
I230
sV\u519c\u5bb6
p1185
I2795
sV\u4e0a\u53f8
p1186
I1448
sV\u62a4\u536b\u8230
p1187
I3649
sV\u903c\u8fd1
p1188
I2500
sV\u8df3\u8d77
p1189
I2166
sV\u5b89\u4e07\u7279
p1190
I1909
sV\u6f6e
p1191
I2679
sV\u63a8\u6d4b
p1192
I2024
sV\u9020\u6210
p1193
I712
sV\u6a21\u5757
p1194
I3580
sV\u540d\u8457
p1195
I2996
sV\u6559\u80b2
p1196
I3015
sV\u81ea\u7136\u4fdd\u62a4\u533a
p1197
I2874
sV\u68a6\u60f3
p1198
I1097
sV\u526f\u520a
p1199
I3242
sV\u63aa\u65bd
p1200
I642
sV\u5c0f
p1201
I3084
sV\u7f8e
p1202
I1333
sV\u6df1\u5165\u7814\u7a76
p1203
I3594
sV\u65e0\u4eba
p1204
I2429
sV\u4efb\u52a1
p1205
I3484
sV\u539f\u578b
p1206
I1777
sV\u6295\u6ce8
p1207
I2605
sV\u624b\u6bb5
p1208
I1870
sV\u98de\u5f80
p1209
I2622
sV\u5c0f\u8bf4
p1210
I3426
sV\u5510\u5c27\u4e1c
p1211
I2478
sV\u8fdb\u884c
p1212
I253
sV\u4fe1\u5fc3
p1213
I540
sV\u91cd\u5e86
p1214
I2851
sV\u6545\u5bab\u535a\u7269\u9662
p1215
I3375
sV\u52a8\u4f5c
p1216
I2173
sV\u5efa\u7acb
p1217
I1107
sV\u7f8e\u56fd\u5e02\u573a
p1218
I908
sV\u5b9e\u8df5
p1219
I3463
sV\u6625\u8282
p1220
I2749
sV\u4e8f\u635f
p1221
I210
sV\u8ba1\u5212
p1222
I54
sV\u98df\u7269
p1223
I2177
sV\u6b66\u8b66\u90e8\u961f
p1224
I3681
sV\u675c\u4f0a\u65af\u5821
p1225
I2305
sV\u516b\u80a1\u6587
p1226
I3009
sV\u4f53\u7cfb
p1227
I1270
sV\u6c5f\u897f
p1228
I2796
sV\u5b8b\u4e00\u6b23
p1229
I1839
sV\u65f6\u62a5
p1230
I728
sV\u89e3\u91ca
p1231
I1718
sV\u73af\u5883
p1232
I1417
sV\u914d\u7f6e
p1233
I176
sV\u8bdd\u9898
p1234
I557
sV\u6781\u503c
p1235
I3161
sV\u534f\u540c
p1236
I3547
sV\u4e0a\u5348
p1237
I1618
sV\u9f99\u6c5f
p1238
I2863
sV\u5ba1\u6279
p1239
I271
sV\u4e0a\u5347
p1240
I755
sV\u4eba\u6570
p1241
I272
sV\u80dc
p1242
I2560
sV\u91cd\u7ec4
p1243
I974
sV\u65f6\u8282
p1244
I975
sV\u901a\u7528
p1245
I3186
sV\u8d54\u4ed8\u7387
p1246
I275
sV\u5236\u4f5c
p1247
I1598
sV\u8c31\u5199
p1248
I3693
sV\u5458\u5de5
p1249
I571
sV\u5355\u4f4d
p1250
I1623
sV\u624e\u9f99
p1251
I2868
sV\u68cb\u5b50
p1252
I969
sV\u4ea4\u901a
p1253
I767
sV\u751f\u7269
p1254
I1913
sV\u7701\u5185\u6e38
p1255
I2866
sV\u56fd\u6b4c
p1256
I2536
sV\u5267\u60c5\u7b80\u4ecb
p1257
I3411
sV\u6444\u50cf\u5934
p1258
I1626
sV\u5f15\u5bfc
p1259
I677
sV\u6709\u52a9\u4e8e
p1260
I2147
sV\u4e0b\u5348
p1261
I2917
sV\u76f8\u5dee
p1262
I409
sV\u8054\u7cfb
p1263
I1855
sV\u9057\u5740
p1264
I1704
sV\u6db5\u76d6
p1265
I1735
sV\u4fdd\u7559
p1266
I780
sV\u70b9\u51fb
p1267
I3207
sV\u9ad8\u4e09
p1268
I3066
sV\u4ee3\u66ff
p1269
I1124
sV\u540d\u58f0
p1270
I3437
sV\u5f00\u9614
p1271
I3121
sV\u8d44\u91d1
p1272
I86
sV\u5411\u4f2f\u5fb7
p1273
I2415
sV\u590d\u8bd5
p1274
I2958
sV\u6cd5\u5219
p1275
I1204
sV\u4e1a\u7ee9
p1276
I988
sV\u518d\u884c
p1277
I3203
sV\u4e2d\u95f4\u4ef7
p1278
I909
sV\u65e5\u5143
p1279
I895
sV\u5927\u57ce\u5e02
p1280
I1299
sV\u89c2\u5ff5
p1281
I2784
sV\u53d1\u5e03
p1282
I1267
sV\u9ad8\u5f3a\u5ea6
p1283
I1411
sV\u519b\u79cd
p1284
I3600
sV\u5a36
p1285
I3439
sV\u6295\u8d44
p1286
I92
sV\u653e\u5f03
p1287
I927
sV\u5efa\u7b51
p1288
I2519
sV\u5934
p1289
I2210
sV\u8ba8\u8bba
p1290
I600
sV\u79d1\u9f99\u7535\u5668
p1291
I1843
sV\u822a\u7ebf
p1292
I2650
sV\u62c9\u952f
p1293
I2114
sV\u9996\u9009
p1294
I100
sV\u52bf\u5934
p1295
I1968
sV\u6307\u671b
p1296
I2557
sV\u89c4\u8303
p1297
I1276
sV\u884c\u52a8
p1298
I806
sV\u5229\u606f
p1299
I2086
sV\u8f6c\u901f
p1300
I434
sV\u8001\u5e74\u4eba
p1301
I1901
sV\u592a\u592a
p1302
I3438
sV\u519b\u6c11
p1303
I3668
sV\u6b64\u524d
p1304
I817
sV\u6388\u8bfe
p1305
I3523
sV\u4e4c\u8fea\u5185\u65af
p1306
I2323
sV\u88ab\u5224
p1307
I1643
sV\u72ec\u4eab
p1308
I1908
sV\u8def
p1309
I1461
sV\u5e15\u52d2\u83ab
p1310
I2289
sV\u4f20\u4e16
p1311
I3344
sV\u7a81\u7834
p1312
I1009
sV\u5bc6\u5ea6
p1313
I3158
sV\u7a7a\u519b
p1314
I3667
sV\u519b\u4e8b\u6f14\u4e60
p1315
I3700
sV\u65e9\u5e02
p1316
I1179
sV\u82f1\u8bed
p1317
I2771
sV\u517c
p1318
I939
sV\u4e00\u65f6\u95f4
p1319
I2794
sV\u680f\u76ee
p1320
I833
sV\u603b\u6570
p1321
I834
sV\u62db\u8058
p1322
I3258
sV\u4e16\u754c
p1323
I157
sV\u9a7e\u9a76
p1324
I444
sV\u5e94\u5f53
p1325
I1853
sV\u53bb\u5e74\u540c\u671f
p1326
I1655
sV\u6392
p1327
I3297
sV\u9648\u7ecd\u5e38
p1328
I3400
sV\u8d54\u507f\u91d1
p1329
I320
sV\u8c03\u8bd5
p1330
I1507
sV\u5b66\u672f
p1331
I1716
sV\u5e2e\u52a9
p1332
I455
sV\u4e30\u7530
p1333
I456
sV\u4eac\u62a5
p1334
I850
sV\u9aa8\u9abc
p1335
I2213
sV\u73b0\u4ee3
p1336
I932
sV\u519b\u8425
p1337
I3686
sV\u8003\u8bd5\u9662
p1338
I3213
sV\u5e02\u503c
p1339
I1151
sV\u4e60\u9898
p1340
I3148
sV\u5931\u8bed
p1341
I1514
sV\u7528\u5230
p1342
I1136
sV\u5931\u8bef
p1343
I2551
sV\u8303\u56f4
p1344
I331
sV\u4e86\u8fd1
p1345
I1023
sV\u4e2d\u6587
p1346
I1210
sV\u8f68\u8ff9
p1347
I2459
sV\u54c1\u79cd
p1348
I102
sV\u754c
p1349
I2689
sV\u589e\u538b\u5668
p1350
I472
sV\u4e2d\u56fd\u56f4\u68cb\u534f\u4f1a
p1351
I2367
sV\u5766\u514b
p1352
I3535
sV\u6574\u6cbb
p1353
I872
sV\u6843\u56ed
p1354
I2834
sV\u91c7\u96c6
p1355
I2013
sV\u4e2d\u65ad
p1356
I2324
sV\u73cd\u85cf
p1357
I3347
sV\u88ab\u52a8
p1358
I187
sV\u884c\u5217
p1359
I853
sV\u4e3b\u6301
p1360
I326
sV\u5b9a\u671f
p1361
I2982
sV\u5c06\u6765
p1362
I656
sV\u5e8f\u5217
p1363
I2603
sV\u5b9d\u9a6c
p1364
I648
sV\u539f\u56e0
p1365
I151
sV\u4e0d\u83b1\u6885
p1366
I2281
sV\u7701\u53bb
p1367
I3251
sV\u653b\u51fb
p1368
I1575
sV\u7eb3\u95f7
p1369
I3268
sV\u51b7\u51b0\u51b0
p1370
I1305
sV\u8054\u90a6
p1371
I1642
sV\u8eab\u6750
p1372
I2125
sV\u8d8a\u91ce\u8f66
p1373
I162
sV\u524d\u7ebf
p1374
I1311
sV\u76ee\u5f55
p1375
I1943
sV\u98df\u54c1
p1376
I2014
sV\u78b0\u5230
p1377
I2067
sV\u50ac\u7720
p1378
I2133
sV\u9a7b\u519b
p1379
I3682
sV\u665a\u62a5
p1380
I2354
sV\u5730\u65b9
p1381
I503
sV\u6ca1\u620f
p1382
I2956
sV\u79d2\u949f
p1383
I1804
sV\u534f\u4f1a
p1384
I1884
sV\u666f\u70b9
p1385
I299
sV\u8c03\u5242
p1386
I2944
sV\u5168\u5e02
p1387
I693
sV\u7838
p1388
I505
sV\u94bb
p1389
I1886
sV\u9ad8\u7b49\u6559\u80b2\u51fa\u7248\u793e
p1390
I3184
sV\u52bf
p1391
I619
sV\u5728\u573a
p1392
I2521
sV\u5149\u76d8
p1393
I1554
sV\u672c\u7247
p1394
I3412
sV\u638c\u63e1
p1395
I1081
sV\u57ce\u7ba1
p1396
I695
sV\u4eab\u6709
p1397
I2080
sV\u738b\u58eb\u6d2a
p1398
I3432
sV\u865a\u62df
p1399
I3564
sV\u4eea\u8868
p1400
I365
sV\u4ed7
p1401
I3662
sV\u79d1\u5b66
p1402
I1740
sV\u969c\u788d
p1403
I368
sV\u4f11\u65af
p1404
I2398
sV\u8003\u7814
p1405
I2933
sV\u9646\u5730
p1406
I3522
sV\u4e13\u4e1a
p1407
I33
sV\u4ece\u4e8b
p1408
I701
sV\u4fa7\u91cd\u4e8e
p1409
I2561
sV\u903c\u771f
p1410
I3589
sV\u534e\u5317\u5730\u533a
p1411
I1532
sV\u8bc4\u4e3a
p1412
I3232
sV\u5e02\u573a
p1413
I60
sV\u5de5\u4e1a
p1414
I1250
sV\u53e3\u7891
p1415
I959
sV\u81ea\u6740
p1416
I524
sV\u6c28\u57fa\u9178
p1417
I2159
sV\u6c14
p1418
I2543
sV\u7535\u8bdd
p1419
I1095
sV\u9006\u5411
p1420
I3114
sV\u9700\u8981
p1421
I381
sV\u8bd5\u70b9
p1422
I1294
sV\u8bc4\u4ecb
p1423
I3666
sV\u9547\u75db\u836f
p1424
I1948
sV\u91d1\u9a6c\u5956
p1425
I3425
sV\u6307\u5bfc\u65b9\u9488
p1426
I3671
sV\u4e2d\u56fd\u8bc1\u76d1\u4f1a
p1427
I1817
sV\u5916\u754c
p1428
I1332
sV\u5e95\u7ebf
p1429
I2416
sV\u7c7b\u4f3c
p1430
I250
sV\u6fc0\u53d1
p1431
I3674
sV\u592a\u548c
p1432
I3385
sV\u964d\u5230
p1433
I871
sV\u9677\u9631
p1434
I1863
sV\u751f\u7406
p1435
I2170
sV\u9898\u6750
p1436
I2288
sV\u56fd\u5bb6\u4f53\u80b2\u603b\u5c40
p1437
I2357
sV\u5e05\u65d7
p1438
I2821
sV\u5148\u751f
p1439
I2078
sV\u7a7a\u964d
p1440
I3619
sV\u7f51\u6613
p1441
I1106
sV\u793a\u8303\u70b9
p1442
I2873
sV\u6f4d\u67f4
p1443
I3378
sV\u670b\u53cb
p1444
I2264
sV\u5546\u5e97
p1445
I1616
sV\u4eac
p1446
I3205
sV\u5047\u671f
p1447
I2816
sV\u53e4\u5e01
p1448
I3329
sV\u8033
p1449
I1728
sV\u5206\u89e3
p1450
I2096
sV\u65c5\u884c\u793e
p1451
I2725
sV\u5b66\u8005
p1452
I3061
sV\u4f53\u9a8c
p1453
I739
sV\u8bc4\u4ef7
p1454
I395
sV\u76f2\u76ee
p1455
I706
sV\u4e1c\u65b9\u4eba
p1456
I549
sV\u9152\u5bb6
p1457
I1048
sV\u8ffd\u7a76
p1458
I261
sV\u9650\u5236
p1459
I967
sV\u804c\u8d23
p1460
I745
sV\u9884\u6848
p1461
I3509
sV\u9879\u76ee
p1462
I51
sV\u53ae\u6740
p1463
I968
sV\u7eff\u53f6
p1464
I1469
sV\u4f9b\u7ed9
p1465
I748
sV\u5bf9\u9762
p1466
I556
sV\u53f8\u4ee4\u90e8
p1467
I3635
sV\u7efc\u5408\u6027
p1468
I3145
sV\u534e\u4eba
p1469
I2527
sV\u529e\u4e8b
p1470
I559
sV\u9053\u8def
p1471
I268
sV\u822a\u5929
p1472
I1796
sV\u5bf9\u65b9
p1473
I2378
sV\u52a8\u7269\u6027
p1474
I2183
sV\u624b\u673a\u7528\u6237
p1475
I1277
sV\u6210\u7ee9
p1476
I971
sV\u5224\u51b3
p1477
I1057
sV\u5bb6\u957f
p1478
I2186
sV\u8282\u65e5
p1479
I2774
sV\u751f\u547d
p1480
I3404
sV\u7565\u6709
p1481
I1180
sV\u706b\u8f66
p1482
I2188
sV\u6bd5\u4e1a
p1483
I2023
sV\u8ba4\u8bc6
p1484
I2737
sV\u7535\u8baf
p1485
I1624
sV\u592a\u5c0f
p1486
I404
sV\u53ef\u80fd\u6027
p1487
I859
sV\u7814\u53cb
p1488
I2984
sV\u8868
p1489
I1987
sV\u5f00\u51fa
p1490
I2332
sV\u6c34\u9762
p1491
I1358
sV\u7ef4\u751f\u7d20
p1492
I2135
sV\u62a2\u94f6\u884c
p1493
I279
sV\u53c2\u8bc4
p1494
I1701
sV\u5c04\u7a0b
p1495
I3617
sV\u6545\u4e8b
p1496
I2338
sV\u7814\u5236
p1497
I1864
sV\u88ab\u544a
p1498
I1816
sV\u5728\u4eac\u4e3e\u884c
p1499
I2272
sV\u5c71\u6cc9
p1500
I2902
sV\u6b7b\u4ea1
p1501
I206
sV\u6a21\u5f0f
p1502
I1073
sV\u884c\u653f
p1503
I1474
sV\u5f00\u901a
p1504
I1630
sV\u62c9\u5f00
p1505
I3487
sV\u4e3b\u65e8
p1506
I3087
sV\u7d20
p1507
I2179
sV\u5386\u53f2\u4f7f\u547d
p1508
I3680
sV\u524d\u5f80
p1509
I2630
sV\u957f\u6c99
p1510
I3243
sV\u4e0d\u4e45\u524d
p1511
I589
sV\u4e2d\u836f
p1512
I1950
sV\u4f4d\u4e8e
p1513
I1634
sV\u57fa\u7840
p1514
I992
sV\u8baf
p1515
I1686
sV\u5de5\u4f5c
p1516
I295
sV\u5e2d\u5377
p1517
I2782
sV\u9ad8\u8fbe
p1518
I1833
sV\u6ce8\u518c
p1519
I1130
sV\u8c03\u8d70
p1520
I1487
sV\u5de5\u4f53
p1521
I3357
sV\u56fe\u7247
p1522
I95
sV\u884d\u751f\u7269
p1523
I1963
sV\u9ad8\u6c34\u5e73
p1524
I1399
sV\u7ecd
p1525
I3402
sV\u547c\u5e94
p1526
I2668
sV\u8bf4\u5b8c
p1527
I2440
sV\u7ea0\u7eb7
p1528
I661
sV\u6b65
p1529
I2420
sV\u6bcd\u516c\u53f8
p1530
I1138
sV\u5347\u804c
p1531
I1490
sV\u6613\u8da3\u7f51
p1532
I1561
sV\u5e72\u6d89
p1533
I3073
sV\u7ec8\u573a
p1534
I2443
sV\u9762\u4e34
p1535
I901
sV\u6838\u5fc3
p1536
I1140
sV\u6321\u4f4d
p1537
I438
sV\u878d\u5408
p1538
I1141
sV\u6570
p1539
I309
sV\u7406\u89e3
p1540
I547
sV\u4e3e\u884c
p1541
I1806
sV\u6ce8\u91cd
p1542
I1992
sV\u7ecf\u8d39
p1543
I3675
sV\u4f8b\u9898
p1544
I3195
sV\u8046\u542c
p1545
I441
sV\u8bc4\u4f30
p1546
I1142
sV\u6539\u7f16
p1547
I3421
sV\u51ef\u8d8a
p1548
I1011
sV\u4eca\u665a
p1549
I2451
sV\u5317\u8def
p1550
I3351
sV\u7cfb\u7edf
p1551
I1120
sV\u4fc3\u9500
p1552
I1144
sV\u65b0\u589e
p1553
I1967
sV\u6f5c\u529b
p1554
I1970
sV\u6708\u5e95
p1555
I1193
sV\u64cd\u7eb5
p1556
I893
sV\u4e0b\u79f0
p1557
I2113
sV\u5e26\u6765
p1558
I449
sV\u53d1\u52a8
p1559
I1657
sV\u660e\u667a
p1560
I2930
sV\u65c5
p1561
I2704
sV\u521b\u610f
p1562
I1401
sV\u6628\u65e5
p1563
I1042
sV\u5927\u4f17
p1564
I1211
sV\u66fc\u8054
p1565
I2586
sV\u73b0\u72b6
p1566
I1146
sV\u8f66\u8d37\u9669
p1567
I1043
sV\u827e\u745e
p1568
I1263
sV\u68c0\u67e5
p1569
I876
sV\u519b\u65b9
p1570
I1660
sV\u51ef\u6cfd
p1571
I2549
sV\u65b0
p1572
I1953
sV\u5382\u5bb6
p1573
I461
sV\u4ed8\u6b3e
p1574
I1150
sV\u5468\u4e8c
p1575
I1174
sV\u7cbe\u82f1
p1576
I3377
sV\u7eb3\u65af
p1577
I2422
sV\u84dd\u72ee
p1578
I2569
sV\u89e3\u7b54
p1579
I3033
sV\u6d3e\u51fa
p1580
I1238
sV\u8bb2\u89e3\u5458
p1581
I2759
sV\u5f62\u8c61
p1582
I1414
sV\u54e8\u697c
p1583
I3691
sV\u4ee4\u5c0f
p1584
I3265
sV\u65b0\u98de
p1585
I132
sV\u957f\u4e09\u89d2
p1586
I2811
sV\u98ce
p1587
I1156
sV\u5bc6\u7801
p1588
I3206
sV\u5b9e\u5175\u6f14\u7ec3
p1589
I3480
sV\u5148\u540e
p1590
I1052
sV\u90bb\u90a6
p1591
I2661
sV\u4e1c\u5317\u4e9a\u5730\u533a
p1592
I2629
sV\u5468\u6da6\u53d1
p1593
I3416
sV\u6218\u6597
p1594
I870
sV\u4e2d\u5e74\u4eba
p1595
I1982
sV\u4eba\u624d
p1596
I1424
sV\u540c\u60c5
p1597
I3405
sV\u9ad8\u6f6e
p1598
I2719
sV\u9762\u5e02
p1599
I1283
sV\u4eba\u624b
p1600
I2471
sV\u897f\u8857
p1601
I3353
sV\u540d\u5e08
p1602
I3012
sV\u5e97\u94fa
p1603
I2772
sV\u613f\u610f
p1604
I653
sV\u8f85\u5bfc\u73ed
p1605
I2970
sV\u80cc\u5355\u8bcd
p1606
I2949
sV\u4e86\u89e3
p1607
I145
sV\u9ad8\u5cf0\u8bba\u575b
p1608
I2016
sV\u9879
p1609
I196
sV\u9ed1\u5ba2
p1610
I1656
sV\u65b0\u4eae\u70b9
p1611
I2608
sV\u957f\u8fbe
p1612
I1861
sV\u6210\u5c31
p1613
I6
sV\u6d77\u91cf
p1614
I3640
sV\u5931\u5206
p1615
I3104
sV\u5c71\u4e1c
p1616
I2877
sV\u4e2d\u7b49\u804c\u4e1a
p1617
I3056
sV\u4f34\u968f
p1618
I2754
sV\u8bf4\u8bdd
p1619
I1478
sV\u6c83\u8fbe\u4e30
p1620
I1579
sV\u5171\u6709
p1621
I684
sV\u50ac\u751f
p1622
I1984
sV\u513f\u5b50
p1623
I2073
sV\u5408\u7406
p1624
I209
sV\u66f9
p1625
I3287
sV\u5316\u89e3
p1626
I500
sV\u51e0\u7387
p1627
I2600
sV\u73a9
p1628
I1582
sV\u5174\u8d77
p1629
I935
sV\u4eab
p1630
I2070
sV\u76f4\u81f3
p1631
I1232
sV\u900f\u9732
p1632
I232
sV\u9009\u62e9
p1633
I19
sV\u8089
p1634
I2138
sV\u73ab\u7470
p1635
I3435
sV\u9ec4\u9f0e\u6770
p1636
I1315
sV\u836f\u65b9
p1637
I1439
sV\u52a8\u8bcd
p1638
I3093
sV\u4eca\u65e5
p1639
I2008
sV\u731b\u864e
p1640
I3568
sV\u672c\u8d5b\u5b63
p1641
I2307
sV\u5148\u77e5
p1642
I2389
sV\u534a\u751f
p1643
I3443
sV\u7259\u818f
p1644
I2103
sV\u542c\u8bc1
p1645
I223
sV\u6cd5\u65b0\u793e
p1646
I1588
sV\u89d2\u5ea6
p1647
I515
sV\u6c7d\u8f66
p1648
I91
sV\u7403\u961f
p1649
I2394
sV\u4fdd\u6709\u91cf
p1650
I228
sV\u8fd0\u7528
p1651
I2382
sV\u6548\u7387
p1652
I690
sV\u6f14\u4e60
p1653
I3602
sV\u95e8\u69db
p1654
I23
sV\u4ef7\u4f4d
p1655
I956
sV\u95ed\u76ee
p1656
I2153
sV\u60c5\u5f62
p1657
I1183
sV\u8bb8\u535a
p1658
I2574
sV\u542c\u8bf4
p1659
I2371
sV\u89e3\u9898
p1660
I3157
sV\u5438\u70df
p1661
I2279
sV\u542c\u8bfe
p1662
I3194
sV\u65c5\u6e38\u4e1a
p1663
I2687
sV\u821c\u5929
p1664
I2509
sV\u98ce\u9669
p1665
I42
sV\u9f0e\u6e56\u5c71
p1666
I2896
sV\u884c\u653f\u90e8\u95e8
p1667
I2048
sV\u7ecf\u8425
p1668
I720
sV\u529e\u6cd5
p1669
I1256
sV\u9884\u8a00
p1670
I963
sV\u4e89\u53d6
p1671
I1385
sV\u6e29\u99a8
p1672
I531
sV\u9009\u624b
p1673
I2345
sV\u6839\u57fa
p1674
I1334
sV\u6d59\u6c5f
p1675
I1713
sV\u8bb0\u5fc6\u529b
p1676
I2909
sV\u7535\u89c6
p1677
I1200
sV\u97e9\u65e5
p1678
I2349
sV\u63a8\u8fdb
p1679
I1736
sV\u5177\u5907
p1680
I1606
sV\u5b8c\u5907
p1681
I1336
sV\u65e0\u9700
p1682
I866
sV\u5e7f\u4e1c
p1683
I50
sV\u6e38\u620f
p1684
I1607
sV\u5c4f\u5e55
p1685
I3050
sV\u5927\u80c6
p1686
I3470
sV\u52a8
p1687
I1464
sV\u804c\u4f4d
p1688
I1465
sV\u519b\u4e8b\u8bad\u7ec3
p1689
I3552
sV\u5927\u957f
p1690
I2652
sV\u603b\u6536\u5165
p1691
I2807
sV\u4e3a\u4e3b
p1692
I1331
sV\u6587\u7269
p1693
I1732
sV\u73b0\u91d1
p1694
I1615
sV\u8ddf\u8e2a
p1695
I3461
sV\u8003\u9a8c
p1696
I917
sV\u6301\u6709
p1697
I555
sV\u9500\u91cf
p1698
I66
sV\u6e05\u534e\u5927\u5b66
p1699
I3058
sV\u6446\u5728
p1700
I2495
sV\u5f00\u53d1
p1701
I68
sV\u660e\u767d
p1702
I561
sV\u6761\u6b3e
p1703
I269
sV\u89e3\u653e\u519b
p1704
I3638
sV\u4e2a\u6027\u5316
p1705
I3007
sV\u5927\u5b66\u751f
p1706
I2852
sV\u745e\u5178
p1707
I1621
sV\u5386\u53f2
p1708
I606
sV\u62db\u6536
p1709
I2974
sV\u8df3\u69fd
p1710
I1475
sV\u57f9\u8bad\u73ed
p1711
I3706
sV\u6548\u80fd
p1712
I3495
sV\u4f5c\u51fa
p1713
I763
sV\u53ea\u80fd\u9760
p1714
I3110
sV\u5347\u8d77
p1715
I2522
sV\u5916\u5730
p1716
I2839
sV\u804c\u4e1a\u9662\u6821
p1717
I3057
sV\u5174\u8da3
p1718
I2094
sV\u4e0d\u5230
p1719
I334
sV\u539f\u521b
p1720
I3316
sV\u6587
p1721
I410
sV\u4e13\u7528\u6c7d\u8f66
p1722
I77
sV\u6253\u7834
p1723
I782
sV\u96c5\u601d
p1724
I2988
sV\u4f5c\u98ce
p1725
I1768
sV\u94f6\u884c\u4e1a
p1726
I1365
sV\u5b9e\u884c
p1727
I240
sV\u7a7a\u95f4
p1728
I84
sV\u89c2\u5bdf
p1729
I985
sV\u590d\u4e60
p1730
I2912
sV\u51fa\u884c
p1731
I2850
sV\u5f20
p1732
I1273
sV\u6f14\u5175\u573a
p1733
I3679
sV\u5e73\u5c40
p1734
I2318
sV\u91c7\u7eb3
p1735
I1781
sV\u9669\u80dc
p1736
I2433
sV\u5de5\u8d44
p1737
I1206
sV\u6c7d\u8f66\u4e1a
p1738
I88
sV\u534f\u8c03
p1739
I778
sV\u56fd\u5185\u6e38
p1740
I2803
sV\u4fdd\u517b
p1741
I582
sV\u9884\u8ba1
p1742
I90
sV\u4e94\u661f\u7ea2\u65d7
p1743
I2516
sV\u8bfb\u8005
p1744
I3331
sV\u9ad8\u8003
p1745
I2061
sV\u5141\u8bb8
p1746
I797
sV\u53cd\u611f
p1747
I2267
sV\u8425\u517b\u7d20
p1748
I2249
sV\u70ed\u60c5
p1749
I1888
sV\u6c42
p1750
I3118
sV\u5ba1\u67e5
p1751
I1134
sV\u8003\u597d
p1752
I2966
sV\u62c9
p1753
I603
sV\u5947\u745e
p1754
I999
sV\u8bbe\u60f3
p1755
I1241
sV\u5047\u65e5\u529e
p1756
I2805
sV\u57fa\u7840\u77e5\u8bc6
p1757
I3178
sV\u5750
p1758
I874
sV\u519c\u5e84
p1759
I2828
sV\u8f6c\u5411
p1760
I2809
sV\u76d7\u7248
p1761
I1570
sV\u84dd
p1762
I3519
sV\u6cd5\u9662
p1763
I1059
sV\u9aa8\u6298
p1764
I816
sV\u6218\u672f
p1765
I2445
sV\u6b8a\u6b7b
p1766
I3524
sV\u5206\u51fa
p1767
I2325
sV\u5c40\u9650
p1768
I3071
sV\u6218\u673a
p1769
I3702
sV\u8fd0\u7403
p1770
I2448
sV\u6717\u8bf5
p1771
I3386
sV\u5ffd\u89c6
p1772
I1390
sV\u76f8\u5f53\u4e8e
p1773
I829
sV\u7ea6\u5b9a
p1774
I2093
sV\u65f6\u671f
p1775
I832
sV\u5357\u4eac
p1776
I1844
sV\u653e\u5bbd
p1777
I835
sV\u822a\u7a7a
p1778
I2611
sV\u5218\u4e4b\u6743
p1779
I3397
sV\u4eba\u6027
p1780
I602
sV\u5217\u88c5
p1781
I3457
sV\u5e02\u573a\u62a5
p1782
I840
sV\u4e24\u56fd
p1783
I2346
sV\u805a\u4f1a
p1784
I1505
sV\u6587\u534e
p1785
I2790
sV\u53d8\u6210
p1786
I1199
sV\u5f00\u529e
p1787
I2707
sV\u5b9e\u88c5
p1788
I3491
sV\u6784\u6210
p1789
I1016
sV\u51fa\u53e3\u5546
p1790
I920
sV\u5ba2\u89c2
p1791
I852
sV\u51c0\u8d44\u4ea7
p1792
I2000
sV\u6062\u590d
p1793
I2456
sV\u77e5\u8bc6
p1794
I1509
sV\u6bd4\u91cd
p1795
I858
sV\u826f\u673a
p1796
I1513
sV\u6467\u6bc1
p1797
I3626
sV\u5960\u5b9a
p1798
I1021
sV\u8d38\u6613
p1799
I1569
sV\u83b7\u80dc
p1800
I2457
sV\u767d\u73ab\u7470
p1801
I3430
sV\u6d59\u6c5f\u7701
p1802
I1737
sV\u6cd5\u56fd
p1803
I641
sV\u6587\u5316
p1804
I527
sV\u706f\u5149
p1805
I467
sV\u8003\u5b8c
p1806
I2968
sV\u90e8\u7f72
p1807
I2055
sV\u65b0\u9ad8
p1808
I919
sV\u4f9d\u6258
p1809
I1154
sV\u6807\u9898
p1810
I1671
sV\u9a97\u53d6
p1811
I1062
sV\u6559\u80b2\u5c40
p1812
I3055
sV\u53c2\u770b
p1813
I3099
sV\u730e\u9e70
p1814
I3663
sV\u9053\u743c\u65af
p1815
I1640
sV\u65b9\u5f0f
p1816
I1160
sV\u559c\u7231
p1817
I2671
sV\u9884\u8b66
p1818
I2881
sV\u98de\u884c\u5668
p1819
I1803
sV\u5927\u8d5b
p1820
I2467
sV\u83b7\u6089
p1821
I1286
sV\u535a\u56ed
p1822
I2832
sV\u5362\u6d6e\u5bab
p1823
I2711
sV\u6652
p1824
I2682
sV\u5b89\u59ae
p1825
I1523
sV\u5510\u9510\u6d9b
p1826
I1224
sV\u62b1\u6028
p1827
I659
sV\u5408\u4f19\u4eba
p1828
I1845
sV\u68c0\u65b9
p1829
I1678
sV\u804c\u4e1a
p1830
I1524
sV\u8865\u7ed9
p1831
I3555
sV\u53ae\u5b88
p1832
I3239
sV\u4eba\u7fa4
p1833
I1926
sV\u52a0\u5feb
p1834
I1705
sV\u88c5\u5907
p1835
I156
sV\u8ba1\u65f6
p1836
I3041
sV\u7231\u597d\u8005
p1837
I3312
sV\u51cc\u6668
p1838
I2511
sV\u53d1\u653e
p1839
I1257
sV\u5360\u5230
p1840
I943
sV\u6ea7\u6c34
p1841
I2815
sV\u798f\u5efa
p1842
I1712
sV\u521a\u4e0b
p1843
I2490
sV\u6761\u4ef6
p1844
I349
sV\u5957\u7528
p1845
I3112
sV\u6c7d\u8f66\u54c1\u724c
p1846
I499
sV\u603b\u7ed3
p1847
I1717
sV\u8def\u7ebf
p1848
I1467
sV\u6743\u5229
p1849
I1555
sV\u7ecf\u9a8c
p1850
I124
sV\u5b9e\u5f39
p1851
I3456
sV\u63a5\u5f85
p1852
I2715
sV\u7f8e\u672f
p1853
I3415
sV\u96be\u53e5
p1854
I3091
sV\u4e2d\u5e74
p1855
I3395
sV\u79d1\u9f99\u6848
p1856
I1834
sV\u66f2\u9a6c
p1857
I1971
sV\u5e72\u90e8
p1858
I3504
sV\u5143\u8001
p1859
I2341
sV\u6d3e
p1860
I509
sV\u62cd\u7167
p1861
I2733
sV\u8865\u52a9
p1862
I1320
sV\u9526\u6807\u8d5b
p1863
I3218
sV\u9762\u79ef
p1864
I697
sV\u540e\u52e4
p1865
I3295
sV\u56fd\u8d44\u59d4
p1866
I2002
sV\u7f29\u6c34
p1867
I1866
sV\u4e13\u5229
p1868
I189
sV\u65e9\u8d77
p1869
I2259
sV\u72d7
p1870
I3004
sV\u9074\u9009
p1871
I1731
sV\u8868\u9762
p1872
I1797
sV\u7efc\u5408
p1873
I1753
sV\u76f4\u5f84
p1874
I367
sV\u7a81\u51fb
p1875
I3556
sV\u652f\u6491
p1876
I30
sV\u77e5\u540d
p1877
I1086
sV\u4f20\u9500
p1878
I3283
sV\u6362
p1879
I1444
sV\u5546\u6237
p1880
I1089
sV\u7f51\u7ad9
p1881
I1593
sV\u90e8\u5206
p1882
I173
sV\u5b9a\u6027
p1883
I1221
sV\u73ed
p1884
I2978
sV\u5170\u5dde\u519b\u533a
p1885
I3575
sV\u76ef
p1886
I1450
sV\u4eba\u5fc3
p1887
I521
sV\u5b9e\u5728
p1888
I1451
sV\u62ab\u9732
p1889
I1911
sV\u91cd\u70b9
p1890
I1942
sV\u6307\u6325\u6240
p1891
I3532
sV\u5bf9\u8bdd
p1892
I1222
sV\u5168
p1893
I2447
sV\u8db3\u591f
p1894
I1489
sV\u6478
p1895
I2157
sV\u51fb\u8d25
p1896
I2380
sV\u5ba2\u961f
p1897
I2333
sV\u75be\u75c5
p1898
I1996
sV\u6b62\u75db
p1899
I1997
sV\u9080
p1900
I3359
sV\u64cd\u63a7
p1901
I380
sV\u9986
p1902
I3309
sV\u542b\u4e49
p1903
I1190
sV\u9ad8\u5206
p1904
I3022
sV\u8d22\u9669
p1905
I248
sV\u65c5\u6e38\u90e8
p1906
I2698
sV\u628a\u63e1
p1907
I3156
sV\u5217
p1908
I1603
sV\u8179\u5730
p1909
I3489
sV\u7ebf\u8def
p1910
I2691
sV\u727a\u7272
p1911
I638
sV\u4f4e\u4ef7
p1912
I900
sV\u6218\u58eb
p1913
I3493
sV\u517b\u6210
p1914
I2172
sV\u8f85\u5bfc
p1915
I2995
sV\u5173\u7981\u95ed
p1916
I3709
sV\u5206\u4e3a
p1917
I1207
sV\u89c2\u6469
p1918
I3497
sV\u5177\u6709
p1919
I190
sV\u624b\u518c
p1920
I2721
sV\u68c0\u9a8c
p1921
I3177
sV\u53cd\u5e94
p1922
I1339
sV\u7535\u5b50\u6e38\u620f
p1923
I1610
sV\u63a8\u884c
p1924
I2075
sV\u653b\u5fc3
p1925
I2386
sV\u5317\u4eac\u5e02
p1926
I742
sV\u8ba4\u540c\u611f
p1927
I1343
sV\u624b
p1928
I2417
sV\u8fdd\u7ea6\u91d1
p1929
I2585
sV\u7f8e\u7709
p1930
I2950
sV\u5962\u4f88\u54c1
p1931
I1213
sV\u7559\u8a00
p1932
I3036
sV\u6d17\u724c
p1933
I1275
sV\u516c\u725b\u961f
p1934
I2377
sV\u5510\u5bfc
p1935
I2493
sV\u4e92\u529e
p1936
I2627
sV\u8bf4\u660e
p1937
I877
sV\u7f3a\u8bfe
p1938
I3179
sV\u7b2c\u4e8c\u70ae\u5175
p1939
I3588
sV\u98ce\u683c
p1940
I400
sV\u548c\u5e73
p1941
I2601
sV\u63ed\u6653
p1942
I1739
sV\u8377\u5170
p1943
I1243
sV\u52a0\u5f3a
p1944
I754
sV\u540c\u540d
p1945
I3417
sV\u6614\u65e5
p1946
I1055
sV\u641e\u6e05
p1947
I3105
sV\u53f8\u673a
p1948
I752
sV\u5d1b\u8d77
p1949
I1279
sV\u6545\u5bab
p1950
I2729
sV\u4f4e\u4e8e
p1951
I930
sV\u56fd
p1952
I938
sV\u4ee5\u5f80
p1953
I1013
sV\u5ec9\u4ef7
p1954
I3643
sV\u8f6c\u8ba9
p1955
I71
sV\u83b7\u5f97
p1956
I766
sV\u58f0
p1957
I2192
sV\u94c1\u62f3
p1958
I3578
sV\u5370\u5ea6
p1959
I2765
sV\u7edf\u8ba1
p1960
I831
sV\u8fd1\u89c6
p1961
I2098
sV\u6cd5\u89c4
p1962
I2116
sV\u6761
p1963
I2666
sV\u63a7\u5236
p1964
I775
sV\u7ecf\u9500\u5546
p1965
I577
sV\u6625\u5929
p1966
I2196
sV\u6b4c\u5531\u5bb6
p1967
I3362
sV\u56f4\u7ed5
p1968
I79
sV\u672c\u62a5\u8baf
p1969
I1287
sV\u4e1c\u5317\u4e9a
p1970
I1194
sV\u559d\u725b\u5976
p1971
I2152
sV\u8bae\u8bba\u6587
p1972
I2990
sV\u7f8e\u4e3d
p1973
I2337
sV\u9499
p1974
I2203
sV\u672a\u77e5
p1975
I2204
sV\u4ef7\u503c
p1976
I585
sV\u53cd\u5f39
p1977
I986
sV\u5b9e\u9645
p1978
I881
sV\u56fe\u4e66
p1979
I3324
sV\u8d22\u4ea7\u635f\u5931
p1980
I292
sV\u6298\u78e8
p1981
I2913
sV\u5b9e\u5f55
p1982
I3540
sV\u75c5\u4f8b
p1983
I2019
sV\u5904\u5728
p1984
I903
sV\u589e\u957f
p1985
I904
sV\u762b\u75ea
p1986
I1633
sV\u8c46\u7c7b
p1987
I2206
sV\u518d\u7248
p1988
I3327
sV\u7535\u5668
p1989
I1173
sV\u83b7
p1990
I795
sV\u8fde\u8d2f
p1991
I3037
sV\u5e74\u6765
p1992
I884
sV\u5019\u9009\u4eba
p1993
I1488
sV\u751f\u7269\u949f
p1994
I2270
sV\u4f01\u56fe
p1995
I3559
sV\u9a73\u56de
p1996
I1891
sV\u661f\u4ed4
p1997
I1381
sV\u62cd
p1998
I2438
sV\u6218\u5907
p1999
I3562
sV\u4e58\u5458
p2000
I431
sV\u6628\u5929
p2001
I1289
sV\u53d7
p2002
I304
sV\u4ea4\u6613\u65e5
p2003
I922
sV\u5e02\u573a\u79e9\u5e8f
p2004
I814
sV\u5f3a\u5316
p2005
I3174
sV\u5ba2\u573a
p2006
I2321
sV\u5c5e
p2007
I1491
sV\u96be\u5fd8
p2008
I2529
sV\u884c\u653f\u5904\u7f5a
p2009
I1849
sV\u5236\u5242
p2010
I1905
sV\u7f3a
p2011
I1318
sV\u77ed\u65f6\u95f4
p2012
I1769
sV\u5173\u56fd\u5149
p2013
I1139
sV\u5730\u7403
p2014
I1802
sV\u7f8a\u5976
p2015
I2218
sV\u4eac\u57ce
p2016
I3376
sV\u5cb3\u7236
p2017
I3408
sV\u51b2\u51fb
p2018
I931
sV\u505c\u8f66
p2019
I824
sV\u8bca\u65ad
p2020
I1497
sV\u5b98\u65b9
p2021
I825
sV\u524d\u63d0
p2022
I113
sV\u4e00\u8f86\u8f66
p2023
I620
sV\u7740\u773c\u4e8e
p2024
I3705
sV\u89e3\u6790
p2025
I1187
sV\u521b\u529e
p2026
I3390
sV\u4e2d\u65b0\u7f51
p2027
I2592
sV\u56e0\u7d20
p2028
I312
sV\u5fb7\u52e4
p2029
I1852
sV\u4e2d\u5fc3
p2030
I1501
sV\u9886
p2031
I1502
sV\u8fbe\u5230
p2032
I155
sV\u5f00\u53d1\u533a
p2033
I94
sV\u6c11\u8b66
p2034
I3263
sV\u5206\u6790\u5e08
p2035
I890
sV\u653b\u5173
p2036
I3474
sV\u51fa\u56fd
p2037
I1654
sV\u5f39\u51fb
p2038
I2226
sV\u5c24\u6587\u56fe\u65af
p2039
I2286
sV\u6559\u6750
p2040
I2991
sV\u6709\u6240
p2041
I844
sV\u8eab\u9ad8
p2042
I2229
sV\u547c\u53eb
p2043
I1506
sV\u7406\u7531
p2044
I322
sV\u62a2
p2045
I2628
sV\u7f2a\u9a9e
p2046
I3413
sV\u5fe7\u8651
p2047
I666
sV\u6da8
p2048
I324
sV\u805a\u7126
p2049
I1405
sV\u5e73
p2050
I2421
sV\u6559\u5b66
p2051
I3171
sV\u53d7\u6b22\u8fce
p2052
I1665
sV\u4fdd\u4fee
p2053
I639
sV\u5c40\u957f
p2054
I2731
sV\u4eca\u5929
p2055
I573
sV\u5217\u4e3a
p2056
I1962
sV\u51b3\u5b9a
p2057
I332
sV\u4e00\u5239\u90a3
p2058
I2392
sV\u8bef\u533a
p2059
I2208
sV\u6559\u5b66\u8d28\u91cf
p2060
I3054
sV\u7eb3\u4f0a\u7c73
p2061
I668
sV\u9762\u5305\u8f66
p2062
I177
sV\u4f4e\u8170\u88e4
p2063
I3710
sV\u6da1\u8f6e
p2064
I470
sV\u666e\u901a
p2065
I333
sV\u6842\u6797
p2066
I2800
sV\u964c\u751f
p2067
I2374
sV\u8f66\u7968
p2068
I3280
sV\u8d37\u6b3e
p2069
I1054
sV\u4e2a\u6027
p2070
I1027
sV\u798f\u514b\u65af
p2071
I1028
sV\u90ae\u7968
p2072
I3338
sVVISA\u5361
p2073
I1158
sV\u8fc7\u5e74
p2074
I3246
sV\u8f85\u52a9
p2075
I477
sV\u56de\u56fd
p2076
I2531
sV\u964d\u4f4e
p2077
I442
sV\u8bbe\u7acb
p2078
I1805
sV\u79f0
p2079
I144
sV\u5305\u5939
p2080
I2468
sV\u6bd4\u4f8b
p2081
I484
sV\u957f\u5047
p2082
I1036
sV\u9ec4\u91d1\u5468
p2083
I1010
sV\u4f7f
p2084
I419
sV\u8f93\u51fa
p2085
I344
sV\u52a0\u5de5
p2086
I2121
sV\u5904\u7406
p2087
I678
sV\u5e08
p2088
I2122
sV\u7956
p2089
I3335
sV\u91d1\u878d\u8bc1\u5238
p2090
I5
sV\u5165\u4fb5
p2091
I1589
sV\u9648\u52a0\u677e
p2092
I2475
sV\u8003\u8651
p2093
I387
sV\u964d
p2094
I1892
sV\u53d8\u5f97
p2095
I498
sV\u6c11\u95f4
p2096
I777
sV\u6587\u4ef6
p2097
I1261
sV\u98de\u673a
p2098
I2482
sV\u5185\u7f6e
p2099
I1581
sV\u5f39\u836f
p2100
I3539
sV\u4e8b\u60c5
p2101
I273
sV\u8f66\u7a97
p2102
I352
sV\u80dc\u8d1f
p2103
I2283
sV\u53cc\u624b
p2104
I2137
sV\u8de8\u8d8a
p2105
I2356
sV\u6e20\u9053
p2106
I1762
sV\u6295\u8bc9
p2107
I1512
sV\u5fd8\u8bb0
p2108
I2923
sV\u6587\u6e0a\u9601
p2109
I1562
sV\u4f17\u4eba
p2110
I3455
sV\u75c5
p2111
I1301
sV\u8bc4\u9009
p2112
I1691
sV\u516c\u5f0f
p2113
I3140
sV\u5965\u4f53\u4e2d\u5fc3
p2114
I2826
sV\u804c
p2115
I1761
sV\u5356
p2116
I2746
sV\u8d1f\u62c5
p2117
I229
sV\u5206\u6ccc
p2118
I2148
sV\u9762\u5bf9
p2119
I1084
sV\u653e\u5728
p2120
I81
sV\u4e0a\u8bfe
p2121
I3185
sV\u533b\u7597
p2122
I234
sV\u65e9\u671f
p2123
I2035
sV\u94f6\u884c\u5361
p2124
I1090
sV\u6027\u6fc0\u7d20
p2125
I2240
sV\u5f55\u53d6
p2126
I2941
sV\u9632\u7a7a
p2127
I3464
sV\u62cd\u5356
p2128
I713
sV\u5175\u5668
p2129
I3469
sV\u5e26\u9886
p2130
I1766
sV\u4fdd\u4fee\u671f
p2131
I523
sV\u7ecf\u7406\u4eba
p2132
I1452
sV\u52a9\u7406
p2133
I1516
sV\u5efa\u6210
p2134
I40
sV\u6253\u4ed7
p2135
I3592
sV\u4fdd\u9669\u516c\u53f8
p2136
I243
sV\u8fdd\u6cd5
p2137
I717
sV\u4e8b\u52a1\u6240
p2138
I1820
sV\u6e34\u671b
p2139
I1826
sV\u83dc\u9e1f
p2140
I2406
sV\u62f3\u51fb
p2141
I3214
sV\u5f00\u5ead\u5ba1\u7406
p2142
I1565
sV\u7269\u4e1a\u516c\u53f8
p2143
I1458
sV\u6e38\u620f\u673a
p2144
I1601
sV\u9ed1\u535a\u58eb
p2145
I2922
sV\u56fd\u9632
p2146
I3670
sV\u8d70\u5eca
p2147
I2901
sV\u63d0\u95ee
p2148
I634
sV\u5f00\u8f9f
p2149
I2624
sV\u8f93\u5165
p2150
I388
sV\u9ec4\u91d1
p2151
I965
sV\u6321
p2152
I389
sV\u7f8e\u56e0\u5179
p2153
I2293
sV\u5218\u658c
p2154
I2651
sV\u674e\u94c1
p2155
I2591
sV\u80fd\u591f
p2156
I544
sV\u914d\u6709
p2157
I2718
sV\u8fb9\u9632
p2158
I3697
sV\u62a5\u8003
p2159
I2919
sV\u5473\u9053
p2160
I2271
sV\u8042\u536b\u5e73
p2161
I2358
sV\u593a\u5f97
p2162
I2413
sV\u8f85\u5bfc\u4e66
p2163
I3133
sV\u8fbe
p2164
I259
sV\u4eca\u591c
p2165
I3374
sV\u5199\u4f5c\u6587
p2166
I2998
sV\u7f51\u9875
p2167
I3308
sV\u52a0\u7d27
p2168
I2880
sV\u8be2\u95ee
p2169
I1470
sV\u81ea\u79f0
p2170
I3276
sV\u80cc
p2171
I2492
sV\u5bfc\u6e38
p2172
I2741
sV\u95ee\u9898
p2173
I266
sV\u95ee\u5230
p2174
I2506
sV\u59bb\u5b50
p2175
I3452
sV\u6709\u610f
p2176
I2317
sV\u53d6
p2177
I2558
sV\u5f00\u8fdb
p2178
I3565
sV\u51fa\u7248\u793e
p2179
I2928
sV\u5145\u5206\u5229\u7528
p2180
I3160
sV\u6269\u5927
p2181
I564
sV\u9057\u4ea7
p2182
I1743
sV\u4e8b\u6001
p2183
I497
sV\u5f15\u9886
p2184
I3317
sV\u5207\u8bb0
p2185
I1181
sV\u540c\u5fd7
p2186
I2981
sV\u8d44\u683c
p2187
I2112
sV\u953b\u70bc\u8eab\u4f53
p2188
I2724
sV\u5e94\u5c4a
p2189
I3298
sV\u667a\u5a01\u6c64\u900a
p2190
I1223
sV\u5bf9\u767d
p2191
I3422
sV\u597d\u50cf
p2192
I2424
sV\u96c6\u4e2d
p2193
I772
sV\u8fbd\u5b81\u961f
p2194
I2508
sV\u845b\u5e86
p2195
I3072
sV\u5236\u9020
p2196
I75
sV\u6807\u5fd7
p2197
I1329
sV\u63a8\u8bff
p2198
I1360
sV\u4e0b\u6765
p2199
I212
sV\u798f\u5efa\u7701
p2200
I1725
sV\u5e93\u592b\u66fc
p2201
I2570
sV\u5ba3\u4f20
p2202
I779
sV\u8d21\u732e
p2203
I2699
sV\u5929\u5929
p2204
I2898
sV\u65e9\u6668
p2205
I2200
sV\u8f93
p2206
I580
sV\u98de\u884c\u5458
p2207
I3664
sV\u5de5\u5177
p2208
I415
sV\u5f62\u52bf
p2209
I2546
sV\u7ade\u6807
p2210
I1230
sV\u6234\u5c14\u516c\u53f8
p2211
I1548
sV\u5b58\u5728
p2212
I786
sV\u7eed\u7ea6
p2213
I2587
sV\u6bd4\u8d5b
p2214
I1782
sV\u94f6\u884c
p2215
I1047
sV\u6fb3
p2216
I2785
sV\u673a\u8003
p2217
I3028
sV\u7ca4\u83dc
p2218
I3231
sV\u501f\u52a9
p2219
I994
sV\u6b27\u7f8e
p2220
I597
sV\u6280\u5de7\u6027
p2221
I3146
sV\u5e02\u573a\u90e8
p2222
I1539
sV\u80e1\u660e\u660e
p2223
I2614
sV\u8fd0\u884c
p2224
I2017
sV\u4e3e
p2225
I599
sV\u751f\u957f
p2226
I2212
sV\u6307\u5f15
p2227
I1272
sV\u8d35\u5bbe\u5ba4
p2228
I3223
sV\u516c\u5e03
p2229
I1550
sV\u653e\u677e
p2230
I998
sV\u7559\u5728
p2231
I2829
sV\u8fdb\u519b
p2232
I99
sV\u8fce\u6765
p2233
I2343
sV\u8087\u5e86
p2234
I2899
sV\u4e3b\u7ba1
p2235
I608
sV\u8054\u64ad
p2236
I808
sV\u8d54
p2237
I303
sV\u4e13\u7528\u8f66
p2238
I105
sV\u9886\u5148
p2239
I433
sV\u80a1\u4efd
p2240
I1056
sV\u642d\u914d
p2241
I2198
sV\u9898\u662f
p2242
I2973
sV\u8bbe\u5728
p2243
I2344
sV\u4e09\u661f\u516c\u53f8
p2244
I1658
sV\u542f\u52a8
p2245
I436
sV\u4fdd\u8d39
p2246
I307
sV\u8bba\u8bc1
p2247
I3460
sV\u5bfb\u6c42
p2248
I111
sV\u73b0\u8c61
p2249
I1292
sV\u6784\u5efa
p2250
I3579
sV\u5927\u91cf
p2251
I114
sV\u62bd\u8c61
p2252
I1335
sV\u8bfb
p2253
I2985
sV\u8463\u4e8b\u4f1a
p2254
I1690
sV\u96c4\u98ce
p2255
I3604
sV\u611f\u5192\u836f
p2256
I1925
sV\u664b\u7ea7
p2257
I1500
sV\u5c55\u793a
p2258
I1396
sV\u8003\u70b9
p2259
I3047
sV\u7814\u7a76\u751f
p2260
I2026
sV\u60c5\u8282
p2261
I3387
sV\u4eba\u6c11\u519b\u961f
p2262
I3683
sV\u544a\u8bc9
p2263
I121
sV\u83dc\u5f0f
p2264
I3235
sV\u4e1c\u5f15\u5c9b
p2265
I3615
sV\u9632\u5b88
p2266
I2454
sV\u94c1\u6805\u680f
p2267
I1337
sV\u5236\u9020\u4e1a
p2268
I123
sV\u5c40\u9762
p2269
I848
sV\u6362\u5e05
p2270
I1685
sV\u8425
p2271
I1756
sV\u6c79\u6d8c
p2272
I1357
sV\u5370\u5df4
p2273
I3657
sV\u8865\u5145
p2274
I854
sV\u732b
p2275
I855
sV\u5434\u5efa\u4e1a
p2276
I2987
sV\u51fa\u54c1
p2277
I1576
sV\u738b\u724c
p2278
I1955
sV\u7ecf\u9a8c\u4e30\u5bcc
p2279
I2959
sV\u53e3\u8bed
p2280
I3026
sV\u6fc0\u52b1
p2281
I1428
sV\u8d2f\u5f7b
p2282
I1409
sV\u751f\u6001
p2283
I3677
sV\u8fdb\u5165
p2284
I128
sV\u80a1\u4e1c
p2285
I1836
sV\u4f5c\u6cd5
p2286
I1668
sV\u8d26\u6237
p2287
I1153
sV\u8ff9\u8c61
p2288
I1176
sV\u4e60\u60ef
p2289
I1115
sV\u7ade\u4e89\u5bf9\u624b
p2290
I562
sV\u89c4\u5b9a
p2291
I868
sV\u538b\u5236
p2292
I1025
sV\u4eba\u7c7b
p2293
I2247
sV\u9a97\u8fdb
p2294
I3281
sV\u5bfc\u6f14
p2295
I3403
sV\u751f\u6b7b
p2296
I2465
sV\u586b\u8865
p2297
I1031
sV\u7b50
p2298
I2216
sV\u68cb\u624b
p2299
I2369
sV\u5931\u53bb
p2300
I1220
sV\u501f\u9274
p2301
I652
sV\u906d
p2302
I1677
sV\u6536\u85cf
p2303
I3342
sV\u79d1\u9f99
p2304
I1830
sV\u5e74\u85aa
p2305
I3300
sV\u795d\u9e3f\u624d
p2306
I3448
sV\u519b\u533a
p2307
I3496
sV\u6b7b
p2308
I1979
sV\u5a01\u80c1
p2309
I1251
sV\u6de1\u5b63
p2310
I2775
sV\u5927\u53f2\u8bb0
p2311
I3326
sV\u6574\u5408
p2312
I1005
sV\u5973\u795e
p2313
I2460
sV\u9ed1\u8f66
p2314
I811
sV\u7f51\u4e0a\u652f\u4ed8
p2315
I1069
sV\u5f52\u5165
p2316
I681
sV\u5783\u573e\u90ae\u4ef6
p2317
I1578
sV\u4ea7\u54c1\u8d28\u91cf
p2318
I496
sV\u5199
p2319
I1310
sV\u743c\u65af
p2320
I2381
sV\u4eba\u5bb6
p2321
I2705
sV\u7814\u7a76\u6240
p2322
I10
sV\u60a3
p2323
I1946
sV\u53c2\u8d5b\u8005
p2324
I1775
sV\u5f53\u521d
p2325
I689
sV\u903e\u671f
p2326
I1284
sV\u7533\u8bf7
p2327
I169
sV\u8eab\u5f71
p2328
I1438
sV\u9003\u907f
p2329
I692
sV\u63d0\u5347
p2330
I356
sV\u9605\u8bfb
p2331
I2266
sV\u6536
p2332
I220
sV\u7c7b\u578b
p2333
I1316
sV\u8f6c\u8f7d
p2334
I306
sV\u5384\u8fd0
p2335
I1771
sV\u4e1c\u5f15
p2336
I3630
sV\u592b\u5987
p2337
I2710
sV\u8d22\u52a1
p2338
I1079
sV\u6559\u5e08
p2339
I3052
sV\u519b\u961f
p2340
I3607
sV\u5927\u56fd
p2341
I669
sV\u9677\u5165
p2342
I3508
sV\u6c47\u805a
p2343
I2363
sV\u96f6\u552e
p2344
I1421
sV\u9009\u62d4
p2345
I3217
sV\u8dd1
p2346
I2929
sV\u8d39
p2347
I740
sV\u53cd\u9a73
p2348
I1898
sV\u611f\u60c5
p2349
I1324
sV\u5b66\u58eb
p2350
I1694
sV\u79c1\u5bb6\u8f66
p2351
I2810
sV\u8d44\u6e90
p2352
I181
sV\u7f3a\u4f4d
p2353
I1087
sV\u901a\u8baf
p2354
I3292
sV\u589e\u503c
p2355
I1088
sV\u8bf7\u6c42
p2356
I2091
sV\u7edf\u8ba1\u6570\u636e
p2357
I1986
sV\u8bf8\u5982
p2358
I2105
sV\u7535\u4fe1
p2359
I1612
sV\u4e09\u89d2\u6d32
p2360
I2757
sV\u6750\u6599
p2361
I1037
sV\u7f51\u7edc
p2362
I964
sV\u5929\u5f13
p2363
I3623
sV\u611f\u8c22
p2364
I2414
sV\u65b0\u52a0\u5761
p2365
I2681
sV\u535a\u58eb\u751f
p2366
I2038
sV\u641c\u7d22
p2367
I2983
sV\u8bfe\u540e
p2368
I3049
sV\u667a\u529b
p2369
I3315
sV\u65f6\u5c1a
p2370
I377
sV\u5c06\u58eb
p2371
I2582
sV\u8ffd
p2372
I715
sV\u6001\u52bf
p2373
I2814
sV\u8d22\u529b
p2374
I3197
sV\u8eab\u5fc3
p2375
I960
sV\u5347\u65d7
p2376
I2510
sV\u673a\u9047
p2377
I2635
sV\u5916\u8d44
p2378
I1527
sV\u5c97
p2379
I3262
sV\u70ed
p2380
I2219
sV\u8868\u73b0
p2381
I382
sV\u6253\u6765
p2382
I3282
sV\u9635\u5730
p2383
I3542
sV\u6851\u5f27
p2384
I3391
sV\u53d7\u635f
p2385
I839
sV\u51fa\u53f0
p2386
I726
sV\u4f5c\u51fa\u53cd\u5e94
p2387
I1543
sV\u9009\u9879
p2388
I3167
sV\u56de\u53bb
p2389
I3240
sV\u989c\u8272
p2390
I1338
sV\u91d1\u9501\u8bb0
p2391
I3453
sV\u5927\u961f
p2392
I883
sV\u542b
p2393
I2175
sV\u5e02\u573a\u63a8\u5e7f
p2394
I1108
sV\u5173\u9526\u9e4f
p2395
I3419
sV\u8d39\u591a
p2396
I3644
sV\u8868\u8ff0
p2397
I1214
sV\u4f18\u70b9
p2398
I3314
sV\u7ed9\u4e88
p2399
I1237
sV\u7559\u4e0b
p2400
I551
sV\u4fdd\u9669\u4e1a\u52a1
p2401
I3294
sV\u4ea7\u80fd
p2402
I64
sV\u62c5\u5fc3
p2403
I750
sV\u538b\u529b
p2404
I621
sV\u81ea\u536b\u961f
p2405
I3648
sV\u6768\u68ee
p2406
I1973
sV\u80a1\u9aa8\u5934
p2407
I2031
sV\u53d1\u81ea
p2408
I1117
sV\u51fa\u73b0
p2409
I563
sV\u7ef4\u6301
p2410
I925
sV\u8fd0\u8f93
p2411
I803
sV\u5217\u5165
p2412
I1622
sV\u53d6\u4ee3
p2413
I1696
sV\u6cbb\u7597
p2414
I813
sV\u6bd5\u4e1a\u751f
p2415
I3060
sV\u5927\u9650
p2416
I274
sV\u5b9e\u73b0
p2417
I761
sV\u4e0a\u6d77
p2418
I977
sV\u9732\u51fa
p2419
I570
sV\u6ce2\u7acb\u7ef4
p2420
I1910
sV\u5927\u9646
p2421
I3046
sV\u60ac\u5ff5
p2422
I2565
sV\u6613\u4e8e
p2423
I1355
sV\u5206\u70b9
p2424
I3267
sV\u6b4c\u821e
p2425
I2871
sV\u4e0a\u6d77\u5e02
p2426
I1856
sV\u5e74\u62a5
p2427
I2009
sV\u5355\u5143
p2428
I3582
sV\u7b11\u58f0
p2429
I1303
sV\u786e\u7acb
p2430
I3538
sV\u57fa\u6069
p2431
I2588
sV\u67e5\u4e0d\u5230
p2432
I3261
sV\u4f0a\u6717
p2433
I3659
sV\u7a3f\u4ef6
p2434
I285
sV\u538b\u54e8
p2435
I2427
sV\u4fe1\u606f
p2436
I781
sV\u54c8\u5c14\u6ee8
p2437
I2849
sV\u6545\u969c
p2438
I1628
sV\u632f\u4fdd
p2439
I3434
sV\u72b6\u51b5
p2440
I783
sV\u6bd4\u6b66
p2441
I3483
sV\u516c\u8def
p2442
I2854
sV\u8fdb\u57ce
p2443
I785
sV\u6210\u672c
p2444
I1126
sV\u4fdd\u5065
p2445
I2110
sV\u5317\u4eac\u6545\u5bab
p2446
I3379
sV\u8f93\u76d8
p2447
I2292
sV\u51fa\u7248
p2448
I1557
sV\u670d\u52a1\u8d28\u91cf
p2449
I588
sV\u56de\u5230
p2450
I1353
sV\u65c5\u6e38\u754c
p2451
I2623
sV\u6253\u6210
p2452
I790
sV\u5230\u8fbe
p2453
I2897
sV\u8d77\u5e8a
p2454
I2265
sV\u82cf\u5b81
p2455
I1172
sV\u6709\u673a
p2456
I3571
sV\u8650\u5f85
p2457
I2222
sV\u8138
p2458
I610
sV\u62db\u751f
p2459
I2971
sV\u63d0\u524d
p2460
I996
sV\u54c1
p2461
I1132
sV\u63d0\u5230
p2462
I1212
sV\u505a\u4eba
p2463
I2961
sV\u5408\u4f5c
p2464
I1135
sV\u5e94\u5bf9
p2465
I1264
sV\u65fa\u5b63
p2466
I2783
sV\u6743\u76ca
p2467
I260
sV\u635f\u5931\u8d54\u507f
p2468
I300
sV\u8d23\u4efb
p2469
I302
sV\u751f\u7269\u5236\u836f
p2470
I1920
sV\u56de\u62a5
p2471
I1412
sV\u516b\u6708
p2472
I3363
sV\u654c\u65b9
p2473
I3557
sV\u5b66\u79d1
p2474
I1744
sV\u7b7e\u5b9a
p2475
I1893
sV\u7f3a\u4e4f
p2476
I107
sV\u90ae\u5dee
p2477
I2446
sV\u51fa\u79df\u6c7d\u8f66
p2478
I820
sV\u5546\u673a
p2479
I1495
sV\u7ba1\u7406\u5c40
p2480
I245
sV\u5e38\u89c4
p2481
I3190
sV\u5bab\u672c
p2482
I2370
sV\u4f20\u9012
p2483
I1389
sV\u5e72
p2484
I618
sV\u505c\u6b62
p2485
I741
sV\u6cbb\u7406
p2486
I827
sV\u4e54\u4e39
p2487
I2461
sV\u65e0\u6cd5
p2488
I263
sV\u542f\u4e8b
p2489
I1840
sV\u7ef4\u62a4
p2490
I828
sV\u9996\u957f
p2491
I3506
sV\u4efd
p2492
I1917
sV\u9752\u5c11\u5e74
p2493
I2223
sV\u53d1\u80b2
p2494
I2224
sV\u719f\u6089
p2495
I1398
sV\u672c\u6708
p2496
I891
sV\u538b\u7f29\u6bd4
p2497
I445
sV\u7ade\u4e89
p2498
I119
sV\u6000\u7591
p2499
I841
sV\u4fdd\u8bc1
p2500
I842
sV\u6536\u83b7
p2501
I1014
sV\u51b3\u5fc3
p2502
I2946
sV\u672c\u671f
p2503
I2545
sV\u5fb7\u56fd
p2504
I631
sV\u83ab\u5fd8
p2505
I2234
sV\u8fc7\u7a0b
p2506
I453
sV\u6570\u91cf
p2507
I636
sV\u751f\u6d3b
p2508
I851
sV\u4e3b\u65cb\u5f8b
p2509
I2865
sV\u4eca\u5e74
p2510
I923
sV\u51ac\u8bad
p2511
I3216
sV\u7ec4\u56e2
p2512
I2748
sV\u6210\u679c
p2513
I1726
sV\u79d1\u6280
p2514
I1688
sV\u7ed3\u5408
p2515
I1511
sV\u529b\u5ea6
p2516
I1553
sV\u5b8c\u6210
p2517
I1020
sV\u53f0\u519b
p2518
I3633
sV\u963f\u7247
p2519
I1938
sV\u5ba2\u6e90
p2520
I2683
sV\u79c1\u4eba
p2521
I1790
sV\u6e38\u5916
p2522
I2673
sV\u5c55\u5f00
p2523
I1022
sV\u996e\u5976
p2524
I2241
sV\u907f\u5f00
p2525
I129
sV\u524d\u6765
p2526
I1837
sV\u53ea\u80fd
p2527
I465
sV\u9655\u897f
p2528
I1734
sV\u5b9e\u529b
p2529
I130
sV\u51fa\u52a8
p2530
I862
sV\u9884\u5148
p2531
I2027
sV\u5168\u519b
p2532
I3510
sV\u90e8\u4ef6
p2533
I3512
sV\u514d\u606f
p2534
I2077
sV\u5b89\u6392
p2535
I1518
sV\u906d\u9047
p2536
I626
sV\u9886\u57df
p2537
I1164
sV\u6839\u6cbb
p2538
I867
sV\u9ad8\u7d20\u8d28
p2539
I3528
sV\u5207\u6c83
p2540
I2315
sV\u5ba2\u6d41\u91cf
p2541
I770
sV\u5230\u4f4d
p2542
I297
sV\u65e0
p2543
I140
sV\u672c\u6765
p2544
I339
sV\u9ad8\u901f\u884c\u9a76
p2545
I479
sV\u4ee3\u7801
p2546
I3198
sV\u54cd\u8d77
p2547
I2533
sV\u5973\u5175
p2548
I3711
sV\u8a00\u8bed
p2549
I143
sV\u5c71
p2550
I1749
sV\u5269\u4e0b
p2551
I340
sV\u8dc6\u62f3\u9053
p2552
I3215
sV\u7fa1\u6155
p2553
I2780
sV\u519c\u5bb6\u4e50
p2554
I2808
sV\u519b\u5de5
p2555
I1184
sV\u62a5\u540d
p2556
I2773
sV\u63a8\u51fa
p2557
I982
sV\u8981\u6c42
p2558
I207
sV\u8054\u90a6\u8d38\u6613\u59d4\u5458\u4f1a
p2559
I1915
sV\u8f6e\u80ce
p2560
I345
sV\u7537\u9ad8\u97f3
p2561
I3361
sV\u6b32\u671b
p2562
I1431
sV\u5408\u8c0b
p2563
I1039
sV\u5168\u961f
p2564
I2497
sV\u53d1\u6325
p2565
I1308
sV\u7528\u836f
p2566
I1994
sV\u58eb\u6c14
p2567
I1309
sV\u4e61
p2568
I2590
sV\u89e3\u9898\u6280\u5de7
p2569
I3024
sV\u53ef\u8c13
p2570
I685
sV\u770b\u597d
p2571
I11
sV\u6355\u9cb8
p2572
I3606
sV\u96be\u9898
p2573
I2022
sV\u53d8\u4e3a
p2574
I2003
sV\u59d4\u6258
p2575
I1829
sV\u5e45\u5ea6
p2576
I281
sV\u7f34\u7eb3
p2577
I216
sV\u8861\u91cf
p2578
I1436
sV\u83b7\u5956
p2579
I1786
sV\u963f\u91cc
p2580
I2387
sV\u9669\u79cd
p2581
I218
sV\u6536\u7f29
p2582
I1363
sV\u751f\u4ea7
p2583
I22
sV\u594b\u6597
p2584
I2963
sV\u59ff\u52bf
p2585
I2161
sV\u884c\u8fdb
p2586
I2140
sV\u540c\u5b66
p2587
I2964
sV\u6b3e\u9879
p2588
I2043
sV\u846c\u9001
p2589
I2390
sV\u6c6a\u5ef6
p2590
I1692
sV\u8d62
p2591
I233
sV\u5fb7\u7532
p2592
I2316
sV\u5ef6\u8bef
p2593
I2062
sV\u98df
p2594
I1058
sV\u88c5\u7f6e
p2595
I1242
sV\u8f66
p2596
I371
sV\u8fb9\u5883
p2597
I3707
sV\u53e3\u6280
p2598
I2401
sV\u82f1\u56fd
p2599
I1326
sV\u8272\u5f69
p2600
I3398
sV\u706b\u529b
p2601
I3544
sV\u98ce\u4e91
p2602
I958
sV\u4efb
p2603
I1093
sV\u65b0\u836f
p2604
I1918
sV\u62e6\u4f4f
p2605
I716
sV\u7701
p2606
I2843
sV\u65c5\u6e38\u56e2
p2607
I2692
sV\u5f69\u8def
p2608
I2602
sV\u519c\u6751
p2609
I1296
sV\u63d0\u51fa
p2610
I44
sV\u4f53\u80b2
p2611
I1600
sV\u5de8\u5934
p2612
I46
sV\u5e73\u65f6
p2613
I2402
sV\u751f\u4e0b
p2614
I3446
sV\u8bfe\u76ee
p2615
I3476
sV\u96f7\u8fbe
p2616
I385
sV\u6709\u9650\u516c\u53f8
p2617
I1041
sV\u84dd\u519b
p2618
I3514
sV\u5355\u8bcd
p2619
I2936
sV\u6218\u7ee9
p2620
I2483
sV\u8ffd\u601d
p2621
I3371
sV\u53d1\u6398
p2622
I1723
sV\u8a79\u59c6\u65af
p2623
I2412
sV\u51c6\u5165
p2624
I738
sV\u7269\u8d44
p2625
I3701
sV\u8bbe\u5907
p2626
I1236
sV\u52a0\u5927
p2627
I2736
sV\u9884\u4ed8\u8d39
p2628
I1112
sV\u58f0\u97f3
p2629
I2205
sV\u516c\u5b89
p2630
I751
sV\u9632\u7ec4
p2631
I2101
sV\u7269\u8d28
p2632
I2181
sV\u6253\u8d62
p2633
I3601
sV\u65af\u56fe\u52a0\u7279
p2634
I2282
sV\u6267\u6cd5\u4eba\u5458
p2635
I753
sV\u4e3b\u5e2d
p2636
I924
sV\u63d0\u9192
p2637
I2042
sV\u586b\u62a5
p2638
I3067
sV\u70bc\u91d1
p2639
I3311
sV\u9009\u62a5
p2640
I3211
sV\u4ea4\u53c9
p2641
I989
sV\u8bcd\u6c47\u91cf
p2642
I3045
sV\u5bb6\u4f4f
p2643
I846
sV\u5730\u5f62
p2644
I3585
sV\u5185\u5bb9
p2645
I572
sV\u6d88\u606f
p2646
I277
sV\u4e3b\u5e05
p2647
I2423
sV\u4e89\u8bae
p2648
I2007
sV\u589e\u52a0
p2649
I278
sV\u4e0a\u8f66
p2650
I2769
sV\u6b65\u4f10
p2651
I1477
sV\u4e1a\u5185\u4eba\u58eb
p2652
I981
sV\u552e\u4ef7
p2653
I408
sV\u9700
p2654
I280
sV\u5e02\u573a\u4efd\u989d
p2655
I575
sV\u5730\u70b9
p2656
I1784
sV\u6e38\u5ba2
p2657
I2340
sV\u4e2a\u522b
p2658
I2695
sV\u6e0a\u6e90
p2659
I2653
sV\u8054\u60f3
p2660
I1364
sV\u547c\u5578
p2661
I3541
sV\u8bc1\u660e
p2662
I411
sV\u8bb0\u8005
p2663
I83
sV\u6295\u5165
p2664
I584
sV\u8bbe\u8ba1\u5e08
p2665
I164
sV\u6295\u4e2d
p2666
I2393
sV\u7b49\u5f85
p2667
I416
sV\u542c\u529b
p2668
I2957
sVA\u80a1
p2669
I1827
sV\u6253\u4e0b
p2670
I1485
sV\u793e\u4f1a
p2671
I1262
sV\u5438\u70df\u8005
p2672
I2262
sV\u6797\u6d77\u5cf0
p2673
I2352
sV\u5b99\u65af
p2674
I3650
sV\u533b\u836f\u4ea7\u4e1a
p2675
I2012
sV\u661f\u671f\u5929
p2676
I2434
sV\u771f\u54c1
p2677
I3337
sV\u5f3a\u8c03
p2678
I792
sV\u56fe\u6848
p2679
I1374
sV\u6218\u5f79
p2680
I1375
sV\u96c5\u864e
p2681
I1635
sV\u9752\u5e74
p2682
I2195
sV\u53d8\u901f\u7bb1
p2683
I422
sV\u652f\u63f4
p2684
I3503
sV\u5de5\u4f5c\u4eba\u5458
p2685
I3030
sV\u5f98\u5f8a
p2686
I997
sV\u9009\u5b9a
p2687
I1792
sV\u7ec4\u5408
p2688
I1991
sV\u4eba\u58eb
p2689
I98
sV\u7528\u6237
p2690
I645
sV\u955c\u6cca\u6e56
p2691
I2861
sV\u4fc3\u8fdb
p2692
I1288
sV\u4e13\u7528
p2693
I103
sV\u89c9\u5f97
p2694
I1004
sV\u65d7\u4e91
p2695
I942
sV\u6d3b\u52a8
p2696
I613
sV\u4e2d\u591a
p2697
I1981
sV\u52a8\u529b
p2698
I435
sV\u60c5\u666f
p2699
I615
sV\u8f7d\u4f53
p2700
I3340
sV\u4e0a\u4efb
p2701
I1493
sV\u6d3b\u529b
p2702
I1387
sV\u8fdc\u9ad8\u4e8e
p2703
I714
sV\u65c5\u6e38\u5708
p2704
I2678
sV\u52a0\u76df
p2705
I3273
sV\u4ed8\u51fa
p2706
I308
sV\u5931\u7720
p2707
I2221
sV\u5927\u75c5
p2708
I2095
sV\u79bb\u5f00
p2709
I112
sV\u9500\u552e\u989d
p2710
I1868
sV\u56fe\u6807
p2711
I1393
sV\u5965\u514b\u65af
p2712
I96
sV\u6982\u7387
p2713
I313
sV\u5e7f\u573a
p2714
I3360
sV\u544a\u8fdb
p2715
I1559
sV\u53d6\u6d88
p2716
I889
sV\u7740\u624b
p2717
I3021
sV\u5b89\u6170
p2718
I2954
sV\u6b27\u6d32\u59d4\u5458\u4f1a
p2719
I1652
sV\u8bd5\u8bad
p2720
I3482
sV\u8fdd\u89c4
p2721
I2100
sV\u4e13\u95e8
p2722
I447
sV\u5e02\u6c11
p2723
I2064
sV\u5f15\u6765
p2724
I1940
sV\u94ed\u8bb0
p2725
I3373
sV\u5206\u6570\u7ebf
p2726
I2948
sV\u6218\u610f
p2727
I2554
sV\u6fee\u5b58\u6615
p2728
I3367
sV\u6d41\u4f20
p2729
I2233
sV\u8282\u7ea6
p2730
I1873
sV\u5723\u5730
p2731
I2712
sV\u6025
p2732
I2068
sV\u4e3e\u529e
p2733
I1295
sV\u7279\u5f81
p2734
I1147
sV\u5b89\u88c5
p2735
I386
sV\u4f18\u60e0
p2736
I325
sV\u6307\u5bfc
p2737
I2470
sV\u91d1\u989d
p2738
I1231
sV\u53cd\u9988
p2739
I458
sV\u4ea4\u6d41
p2740
I3166
sV\u601d\u7ef4\u4e60\u60ef
p2741
I2920
sV\u70ae\u5f39
p2742
I3500
sV\u6301\u5e73
p2743
I328
sV\u9632\u5fa1
p2744
I3629
sV\u542c\u5230
p2745
I2238
sV\u610f\u5fd7
p2746
I2239
sV\u7403\u8ff7
p2747
I2518
sV\u5168\u6587
p2748
I2268
sV\u7559\u6d0b
p2749
I2584
sV\u7403
p2750
I2285
sV\u5c65\u884c
p2751
I2410
sV\u5bf9\u8c61
p2752
I2079
sV\u6297\u83cc
p2753
I3690
sV\u65d7\u4e0b
p2754
I1670
sV\u6307\u5b9a
p2755
I1793
sV\u652f\u6301
p2756
I1155
sV\u51fa\u53d1
p2757
I3505
sV\u7259
p2758
I2115
sV\u76ee\u7684\u5730
p2759
I2663
sV\u5f71\u54cd
p2760
I474
sV\u5357\u4e9a
p2761
I2685
sV\u6d6a\u8d39
p2762
I2164
sV\u8d44\u8d28
p2763
I818
sV\u6311\u6218
p2764
I1162
sV\u56fd\u5bb6\u6587\u7269\u5c40
p2765
I1746
sV\u6211\u4f1a
p2766
I480
sV\u60f3\u5ff5
p2767
I2534
sV\u56fd\u9645
p2768
I662
sV\u4fc3\u4f7f
p2769
I933
sV\u767b\u9646
p2770
I1807
sV\u72ec\u5230
p2771
I657
sV\u8d44\u8d39
p2772
I1535
sV\u6446\u52a8
p2773
I2254
sV\u884c\u4e1a
p2774
I149
sV\u8054\u8003
p2775
I3191
sV\u539f\u544a
p2776
I1846
sV\u6444\u5165
p2777
I2176
sV\u4f1a\u8ba1\u5e08
p2778
I1814
sV\u53bb\u5e74
p2779
I318
sV\u6743\u5a01
p2780
I1304
sV\u836f\u5382
p2781
I1895
sV\u4e8f
p2782
I205
sV\u6292\u53d1
p2783
I3384
sV\u5916
p2784
I1167
sV\u54a8\u8be2
p2785
I1258
sV\u666e\u79d1
p2786
I2580
sV\u6b65\u884c\u8005\u961f
p2787
I2383
sV\u4e61\u6751
p2788
I2806
sV\u603b\u76d1
p2789
I1203
sV\u5784\u65ad
p2790
I687
sV\u8f6c\u6362
p2791
I688
sV\u8d54\u4ed8
p2792
I213
sV\u8ba4\u51c6
p2793
I1434
sV\u505a\u68a6
p2794
I2717
sV\u8d22\u7ecf
p2795
I1072
sV\u7535\u5f71
p2796
I1583
sV\u98ce\u60c5
p2797
I2855
sV\u5956\u52b1
p2798
I1313
sV\u4f8b\u5b50
p2799
I3013
sV\u79d8\u4e66\u957f
p2800
I219
sV\u56e2\u961f
p2801
I1440
sV\u5f00\u653e
p2802
I1268
sV\u5e0c\u671b
p2803
I507
sV\u7eb3\u5165
p2804
I2118
sV\u5de6\u6d1b\u590d
p2805
I1887
sV\u5f71\u5b50
p2806
I359
sV\u8d70\u5411
p2807
I1755
sV\u53d1\u8d77
p2808
I1965
sV\u4e2d\u7f8e\u5173\u7cfb
p2809
I3631
sV\u56de\u5f52
p2810
I2571
sV\u670d\u52a1\u4e1a
p2811
I1321
sV\u8bcd
p2812
I2107
sV\u5f53\u5e74
p2813
I514
sV\u83dc\u54c1
p2814
I3234
sV\u5e26\u52a8
p2815
I26
sV\u7b5b\u9009
p2816
I1741
sV\u7f5a
p2817
I2403
sV\u5199\u6cd5
p2818
I3042
sV\u8bb0\u4f4f
p2819
I2149
sV\u62a2\u593a
p2820
I707
sV\u8c03\u7814
p2821
I708
sV\u4e0b\u8c03
p2822
I1526
sV\u6536\u5230
p2823
I347
sV\u5174\u8870
p2824
I3328
sV\u5b9a\u4ef7
p2825
I915
sV\u9ad8\u7aef
p2826
I1546
sV\u5de5\u7a0b
p2827
I35
sV\u6001\u5ea6
p2828
I519
sV\u770b\u770b
p2829
I1449
sV\u8fc7\u6765\u4eba
p2830
I3068
sV\u8fde\u957f
p2831
I3526
sV\u8bcd\u4e49
p2832
I3111
sV\u9a6c
p2833
I1698
sV\u4e13\u7a0b
p2834
I3229
sV\u6df7\u65e5\u5b50
p2835
I2907
sV\u9999\u6e2f\u7535\u5f71
p2836
I3427
sV\u65b0\u6d6a
p2837
I1700
sV\u8bfe\u5802
p2838
I3014
sV\u843d\u9009
p2839
I1752
sV\u8bb2\u8bfe
p2840
I3188
sV\u676d\u5dde
p2841
I3355
sV\u4efb\u804c
p2842
I1455
sV\u8001\u9f84\u5316
p2843
I1359
sV\u5206\u516c\u53f8
p2844
I3255
sV\u633a\u8fdb
p2845
I3581
sV\u517b\u72d7\u4f1a
p2846
I2993
sV\u673a\u573a
p2847
I2476
sV\u539f\u6599
p2848
I2165
sV\u996e\u98df
p2849
I2128
sV\u4e2d\u65e5\u97e9
p2850
I2342
sV\u575a\u6301
p2851
I607
sV\u7279\u70b9
p2852
I1101
sV\u68ee\u6797\u516c\u56ed
p2853
I2820
sV\u996d\u5e97
p2854
I532
sV\u5c06\u7403
p2855
I2408
sV\u4eab\u53d7
p2856
I534
sV\u5b98\u5175
p2857
I3473
sV\u904f\u5236
p2858
I3613
sV\u539f\u6587
p2859
I3023
sV\u901b
p2860
I2513
sV\u57c3\u83f2\u5c14\u94c1\u5854
p2861
I2706
sV\u514d\u8d39
p2862
I537
sV\u5c9b
p2863
I2890
sV\u961f
p2864
I727
sV\u65b9\u6848
p2865
I1463
sV\u6d2a\u6c5f
p2866
I1720
sV\u4ea4
p2867
I730
sV\u8fdb\u9a7b
p2868
I3226
sV\u6392\u7403
p2869
I2139
sV\u67aa
p2870
I3591
sV\u6c88\u9633\u519b\u533a
p2871
I3499
sV\u5b69\u5b50
p2872
I2236
sV\u7f5a\u6b3e
p2873
I736
sV\u526f\u603b
p2874
I393
sV\u4e2d\u56fd
p2875
I57
sV\u5236\u5b9a
p2876
I2932
sV\u975e\u753e\u4f53
p2877
I1961
sV\u5e74\u4ee3
p2878
I59
sV\u4e13\u5bb6\u7ec4
p2879
I3341
sV\u4e0d\u8d25
p2880
I2308
sV\u5224\u65ad
p2881
I3135
sV\u4e09\u661f
p2882
I1529
sV\u65e5\u62a5
p2883
I1113
sV\u8001\u5e08
p2884
I2969
sV\u8303\u6587
p2885
I3000
sV\u521d\u76d8
p2886
I2313
sV\u6bd2\u523a
p2887
I3634
sV\u6c49\u5149
p2888
I3636
sV\u63d2
p2889
I3038
sV\u8f93\u7403
p2890
I2496
sV\u5f3a\u5316\u8bad\u7ec3
p2891
I3164
sV\u53c2\u8c0b\u957f
p2892
I3471
sV\u725b\u5976
p2893
I2132
sV\u8bfe\u9898
p2894
I3584
sV\u8f9e\u53bb
p2895
I1763
sV\u4ee4
p2896
I929
sV\u5386\u65f6
p2897
I184
sV\u5b66\u5458
p2898
I3187
sV\u8d26
p2899
I501
sV\u95e8\u7968
p2900
I2838
sV\u5b9e\u5fb7
p2901
I2479
sV\u6d77\u5357
p2902
I2680
sV\u5706\u5f62
p2903
I1354
sV\u533a\u57df
p2904
I979
sV\u987a\u53e3\u6e9c
p2905
I2768
sV\u62fc
p2906
I2986
sV\u5206\u6790
p2907
I1188
sV\u5f97\u5206
p2908
I2425
sV\u5f20\u514b\u519b
p2909
I1939
sV\u5f04
p2910
I1480
sV\u7387
p2911
I1361
sV\u8b66\u65b9
p2912
I3271
sV\u76f8\u4fe1
p2913
I579
sV\u7b97
p2914
I583
sV\u63fd\u5ba2
p2915
I784
sV\u7814\u4fee\u73ed
p2916
I3063
sV\u6e05
p2917
I3475
sV\u519b
p2918
I3490
sV\u529d
p2919
I3302
sV\u9001\u4fe1
p2920
I2431
sV\u4f53\u4f1a
p2921
I587
sV\u884c\u60c5
p2922
I664
sV\u53cd\u7701
p2923
I1484
sV\u8003\u9898
p2924
I2972
sV\u7ecf\u5386
p2925
I2514
sV\u9ad8\u7ba1
p2926
I885
sV\u80fd\u529b
p2927
I593
sV\u4e0d\u6cd5
p2928
I793
sV\u4ee5\u8272\u5217
p2929
I3655
sV\u5f97\u5230
p2930
I596
sV\u96f7\u5409\u7eb3
p2931
I2301
sV\u6d77\u5578
p2932
I2665
sV\u4e0a\u6d77\u4eba\u6c11\u51fa\u7248\u793e
p2933
I1572
sV\u5bf9\u6297
p2934
I3558
sV\u539f\u8457
p2935
I3401
sV\u5168\u5bb6
p2936
I2847
sV\u4ea4\u63a5
p2937
I605
sV\u6291\u5236\u5242
p2938
I1969
sV\u63a5\u56e2
p2939
I2827
sV\u5ba2\u4eba
p2940
I3238
sV\u4ece\u5bb9
p2941
I2439
sV\u5904\u7f5a
p2942
I809
sV\u590d\u65b9
p2943
I1978
sV\u6625\u5170
p2944
I18
sV\u4f1a\u8bae
p2945
I670
sV\u524d\u7f6e\u7a0b\u5e8f
p2946
I1835
sV\u66fc\u7490
p2947
I3444
sV\u65e0\u60c5
p2948
I1008
sV\u60e0\u53ca
p2949
I2672
sV\u5448\u73b0
p2950
I186
sV\u6ee1\u610f
p2951
I2573
sV\u96f6\u552e\u5e97
p2952
I1644
sV\u665a\u671f
p2953
I1990
sV\u5c24\u6587
p2954
I2562
sV\u4f2f\u5fb7
p2955
I2449
sV\u8f6f\u4ef6
p2956
I3062
sV\u7f51\u53cb
p2957
I2040
sV\u62fd
p2958
I3252
sV\u663e\u6446
p2959
I2450
sV\u884c\u5217\u5f0f
p2960
I3120
sV\u5907\u53d7
p2961
I2844
sV\u526f\u603b\u7ecf\u7406
p2962
I2755
sV\u5bfc\u6570
p2963
I3115
sV\u5242\u91cf
p2964
I1929
sV\u50cf\u7d20
p2965
I1653
sV\u751f\u610f
p2966
I1504
sV\u81ea\u52a8
p2967
I448
sV\u81ea\u52a9
p2968
I2819
sV\u5f71\u4e1a\u516c\u53f8
p2969
I3392
sV\u4e9f\u5f85
p2970
I3264
sV\u6cf0\u534e
p2971
I1871
sV\u6240\u4f5c
p2972
I1402
sV\u77f3\u6cb9
p2973
I663
sV\u9053\u9898
p2974
I3125
sV\u8ba1\u7b97\u673a
p2975
I3304
sV\u7f16\u5267
p2976
I3394
sV\u56de\u5934\u5ba2
p2977
I2664
sV\u83b7\u76ca
p2978
I1661
sV\u4e0b\u8dcc
p2979
I1552
sV\u6d88\u8d39\u54c1
p2980
I3291
sV\u6d4b\u7b97
p2981
I2888
sV\u66f9\u56fd\u4f1f
p2982
I1684
sV\u5475\u62a4
p2983
I171
sV\u5bf9\u9635
p2984
I2547
sV\u8eba
p2985
I2632
sV\u5317\u4eac\u519b\u533a
p2986
I3698
sV\u89c6\u666f
p2987
I3603
sV\u7761\u7720
p2988
I2243
sV\u9879\u76ee\u7ecf\u7406
p2989
I1517
sV\u4ee5\u519b
p2990
I3708
sV\u5347
p2991
I1024
sV\u65b0\u534e\u7f51
p2992
I1240
sV\u542b\u6709
p2993
I2244
sV\u62a5\u8b66
p2994
I3275
sV\u4e13\u5bb6
p2995
I133
sV\u4f4f
p2996
I2804
sV\u5e73\u624b
p2997
I2314
sV\u5927\u5b66
p2998
I134
sV\u745e\u864e
p2999
I1026
sV\u8d5e\u8d4f
p3000
I2777
sV\u9662\u957f
p3001
I2032
sV\u666e\u7814
p3002
I3181
sV\u996e\u7528
p3003
I2250
sV\u7ade\u4e89\u529b
p3004
I1029
sV\u5bf9\u624b
p3005
I476
sV\u4f53\u68c0
p3006
I3288
sV\u6628\u5929\u4e0b\u5348
p3007
I1541
sV\u6392\u540d
p3008
I1584
sV\u836f\u7269
p3009
I1906
sV\u9648\u748b
p3010
I1051
sV\u9886\u5bfc
p3011
I1427
sV\u4ee3\u7406
p3012
I1823
sV\u8bc4\u5ba1
p3013
I1748
sV\u53c2\u6570
p3014
I3130
sV\u6c83\u5c14\u592b\u65af\u5821
p3015
I2330
sV\u7406\u8bba
p3016
I2548
sV\u6559\u7ec3
p3017
I2472
sV\u8ba4\u53ef
p3018
I1754
sV\u4e13\u9879
p3019
I676
sV\u56fd\u5bb6
p3020
I200
sV\u4f30\u7b97
p3021
I201
sV\u5b9a\u4f4d
p3022
I983
sV\u6863\u6848
p3023
I2951
sV\u8bf4\u6cd5
p3024
I203
sV\u82f1\u8bd1\u6c49
p3025
I3083
sV\u56db\u5ddd
p3026
I2848
sV\u52b2\u5439
p3027
I3685
sV\u6210
p3028
I1306
sV\u60a3\u513f
p3029
I2126
sV\u5174\u594b
p3030
I2347
sV\u88ab\u6355
p3031
I896
sV\u9ad8\u989d
p3032
I683
sV\u9f99
p3033
I1681
sV\u529b
p3034
I350
sV\u5b66\u751f
p3035
I2994
sV\u767d\u5929
p3036
I2130
sV\u589e\u5e45
p3037
I1312
sV\u5904
p3038
I1821
sV\u539f\u5219
p3039
I283
sV\u6c6a\u529b
p3040
I1433
sV\u91c7\u8bbf
p3041
I15
sV\u4e66\u5199
p3042
I2372
sV\u5927\u989d
p3043
I2099
sV\u60f3\u5230
p3044
I338
sV\u7ed3\u7b97
p3045
I1265
sV\u4ea7\u4e1a
p3046
I16
sV\u71c3\u6cb9
p3047
I355
sV\u539f\u672c
p3048
I993
sV\u95e8\u5934\u6c9f
p3049
I819
sV\u6e38
p3050
I2644
sV\u97e9\u5143
p3051
I914
sV\u6267\u884c
p3052
I1542
sV\u6d77\u519b
p3053
I3628
sV\u56fd\u4eba
p3054
I1710
sV\u8003\u4e0a
p3055
I2965
sV\u5bff\u547d
p3056
I1293
sV\u6548\u679c
p3057
I1080
sV\u738b\u5bab
p3058
I2738
sV\u884c
p3059
I2083
sV\u4e34\u8fd1
p3060
I225
sV\u5954\u88ad
p3061
I3516
sV\u89c4\u5219
p3062
I1445
sV\u53c2\u52a0
p3063
I710
sV\u53d1\u52a8\u673a
p3064
I391
sV\u89c4\u5212
p3065
I705
sV\u8bcd\u6c47
p3066
I3008
sV\u6587\u660e\u6751
p3067
I3669
sV\u6280\u5de7
p3068
I3044
sV\u9690\u60a3
p3069
I3466
sV\u4e3b\u529b
p3070
I955
sV\u70ed\u95e8
p3071
I957
sV\u4e2d\u592e\u519b\u59d4
p3072
I3678
sV\u738b\u6cbb\u90c5
p3073
I2525
sV\u8bfe\u7a0b
p3074
I2938
sV\u9080\u8bf7
p3075
I3233
sV\u8f68\u9053
p3076
I1808
sV\u80fd\u91cf
p3077
I2158
sV\u4e9a\u6d32
p3078
I940
sV\u603b\u548c
p3079
I1094
sV\u724c\u7167
p3080
I1252
sV\u51fa\u5dee
p3081
I2162
sV\u5982
p3082
I43
sV\u5ba1\u5224
p3083
I1599
sV\u5938\u5f20
p3084
I1100
sV\u8fc7\u9519
p3085
I249
sV\u4f5c\u6587
p3086
I3085
sV\u8003\u6838
p3087
I3501
sV\u7279\u5730
p3088
I2477
sV\u521b
p3089
I2813
sV\u82cf\u7433
p3090
I3076
sV\u82f1\u8bed\u6c34\u5e73
p3091
I3088
sV\u6b21
p3092
I2171
sV\u4e0a\u4e0b\u518c
p3093
I3192
sV\u56f0\u6270
p3094
I729
sV\u51b7\u85cf\u8f66
p3095
I85
sV\u8986\u76d6
p3096
I1152
sV\u6027
p3097
I1219
sV\u5730\u533a
p3098
I879
sV\u62c9\u9f50\u5965
p3099
I2294
sV\u4e0b\u6ed1
p3100
I1689
sV\u51b2
p3101
I911
sV\u6ce8\u660e
p3102
I256
sV\u773c\u7403
p3103
I1341
sV\u6469\u6258\u7f57\u62c9
p3104
I1540
sV\u6f2b\u957f
p3105
I2178
sV\u503e\u8986
p3106
I1344
sV\u5c16\u5200
p3107
I3507
sV\u4fe1\u7528\u5361
p3108
I1111
sV\u53d8\u52a8
p3109
I1999
sV\u6218\u529b
p3110
I3637
sV\u5b66\u9662
p3111
I67
sV\u53ef\u60dc
p3112
I1348
sV\u957f\u6625\u961f
p3113
I2577
sV\u533a\u95f4
p3114
I970
sV\u6587\u660e
p3115
I2747
sV\u529b\u91cf
p3116
I590
sV\u7cfb
p3117
I241
sV\u91cd\u4efb
p3118
I3521
sV\u79d1\u7814
p3119
I3597
sV\u961f\u957f
p3120
I2498
sV\u601d\u7ef4
p3121
I1350
sV\u529f\u80fd
p3122
I182
sV\u4e13\u9898
p3123
I3219
sV\u73cd\u54c1
p3124
I3339
sV\u8c2d\u6b63
p3125
I3459
sV\u7f8e\u56fd\u8054\u90a6
p3126
I1896
sV\u62a4\u7406
p3127
I2111
sV\u6b27\u6d32\u4eba
p3128
I569
sV\u5e15\u5c14\u9a6c
p3129
I2328
sV\u98de\u5165
p3130
I1809
sV\u6df1\u5165
p3131
I1209
sV\u4f9d\u9760
p3132
I768
sV\u8ffd\u6c42
p3133
I2566
sV\u5fd7\u613f
p3134
I3074
sV\u5f97\u51fa
p3135
I719
sV\u7ca4\u8bed
p3136
I3414
sV\u56fd\u5bb6\u65c5\u6e38\u5c40
p3137
I2645
sV\u5206
p3138
I327
sV\u5438\u70df\u7387
p3139
I2260
sV\u6536\u8d2d
p3140
I1192
sV\u6f2b\u6e38\u8d39
p3141
I1592
sV\u7ec6\u5fc3
p3142
I581
sV\u6307\u7740
p3143
I2428
sV\u6536\u8d39
p3144
I1367
sV\u62e6\u622a
p3145
I3653
sV\u5e74\u9f84
p3146
I2248
sV\u4e0b\u8f7d
p3147
I1632
sV\u8bed\u8a00
p3148
I3089
sV\u6c28\u915a
p3149
I1944
sV\u6a21\u62df\u9898
p3150
I2980
sV\u738b\u5148\u751f
p3151
I2069
sV\u5929\u76ca\u6e38
p3152
I3306
sV\u62d2\u7edd
p3153
I789
sV\u6b22\u8fce
p3154
I2883
sV\u8425\u9500
p3155
I89
sV\u5e2e
p3156
I3070
sV\u6587\u5316\u8282
p3157
I2845
sV\u4eea\u5f0f
p3158
I3064
sV\u94f6\u8054
p3159
I2076
sV\u5728\u804c
p3160
I2967
sV\u4e8b\u6545
p3161
I323
sV\u51fa\u5883\u6e38
p3162
I2730
sV\u65b0\u4e2d
p3163
I3356
sV\u5bc6\u4e91
p3164
I800
sV\u5fc3
p3165
I2309
sV\u7cbe\u8bfb
p3166
I3096
sV\u9876\u7ea7
p3167
I174
sV\u8282\u524d
p3168
I918
sV\u97f3\u4e50
p3169
I1638
sV\u76ee\u6807
p3170
I1002
sV\u5956\u91d1
p3171
I1794
sV\u65bd\u8d35\u5b9d
p3172
I1899
sV\u56e2\u957f
p3173
I3567
sV\u4f4f\u5bbf
p3174
I2817
sV\u627f\u4fdd
p3175
I1061
sV\u7406\u5ff5
p3176
I183
sV\u5b66\u6821
p3177
I2906
sV\u603b\u91cf
p3178
I798
sV\u4e0d\u4e89
p3179
I109
sV\u4e0d\u4e88
p3180
I718
sV\u6218\u533a
p3181
I3368
sV\u591a\u8fbe
p3182
I1534
sV\u65b0\u4e61
p3183
I28
sV\u9996\u53d1\u5f0f
p3184
I2269
sV\u8bb2\u89e3
p3185
I3193
sV\u6362\u56de
p3186
I1902
sV\u75f4\u8ff7
p3187
I3310
sV\u6765\u6e90
p3188
I1648
sV\u91d1\u94b1
p3189
I1394
sV\u77e5\u8bc6\u70b9
p3190
I3116
sV\u5de9\u56fa
p3191
I894
sV\u51c0\u6536\u5165
p3192
I1650
sV\u641c\u72d0
p3193
I314
sV\u7535\u4fe1\u5c55
p3194
I1651
sV\u773c\u775b
p3195
I2253
sV\u4f20\u51fa
p3196
I252
sV\u7a7a\u8179
p3197
I2228
sV\u5e94\u7528
p3198
I1145
sV\u6709\u7740
p3199
I48
sV\u8dfb\u8eab
p3200
I1015
sV\u7248\u6743
p3201
I319
sV\u4fe1\u4efb
p3202
I1400
sV\u5438\u6536
p3203
I2230
sV\u9c9c\u5976
p3204
I2246
sV\u81f4\u4f7f
p3205
I1758
sV\u6d88\u8d39
p3206
I125
sV\u98de
p3207
I2488
sV\u653f\u7b56
p3208
I126
sV\u4e0d\u4e4f
p3209
I168
sV\u7231
p3210
I1662
sV\u7075\u6d3b\u6027
p3211
I3139
sV\u767d\u9886
p3212
I1019
sV\u4f20\u7edf
p3213
I373
sV\u51cf\u5c11
p3214
I1413
sV\u5efa\u8bae
p3215
I1667
sV\u804a
p3216
I2526
sV\u961f\u5458
p3217
I863
sV\u5b89\u5951\u5854
p3218
I1669
sV\u94b1\u5e01
p3219
I1419
sV\u9a6c\u6797
p3220
I2491
sV\u5efa\u8bbe
p3221
I135
sV\u89c2\u4f17
p3222
I1420
sV\u5199\u4f5c
p3223
I3003
sV\u7ecf\u5178
p3224
I2365
sV\u4e0b\u8fbe
p3225
I3520
sV\u4e24\u672c\u4e66
p3226
I3168
sV\u5206\u6570
p3227
I3095
sV\u5927\u5956
p3228
I1800
sV\u5efa
p3229
I3043
sV\u5cf0
p3230
I3661
sV\u520a\u767b
p3231
I1563
sV\u6577\u884d
p3232
I1426
sV\u673a\u578b
p3233
I1530
sV\u7a81\u88ad
p3234
I3574
sV\u6982\u5ff5
p3235
I1033
sV\u907f\u514d
p3236
I1522
sV\u5206\u6563
p3237
I1163
sV\u7528\u4e8e
p3238
I146
sV\u827e\u54c8\u8fc8\u5fb7
p3239
I2767
sV\u6821\u56ed
p3240
I2926
sV\u6709\u76ca\u4e8e
p3241
I1770
sV\u7a7f\u7740
p3242
I3714
sV\u641c\u72d7
p3243
I3350
sV\u6c34\u679c
p3244
I2120
sV\u4f11\u95f2
p3245
I2610
sV\u57f9\u8bad
p3246
I489
sV\u6c9f\u901a
p3247
I490
sV\u611f
p3248
I2911
sV\u6210\u4e3a
p3249
I3
sV\u785d\u70df
p3250
I3590
sV\u8fd0\u8425
p3251
I691
sV\u7535\u5b50
p3252
I1068
sV\u9500\u552e\u4ef7\u683c
p3253
I892
sV\u9ad8\u5e99
p3254
I1711
sV\u4e8b\u4ef6
p3255
I494
sV\u533a\u533a
p3256
I208
sV\u81f4\u529b\u4e8e
p3257
I1197
sV\u706b\u8f66\u7ad9
p3258
I2885
sV\u529f
p3259
I2131
sV\u8bbe\u65bd
p3260
I2895
sV\u4e0d\u89c1
p3261
I2914
sV\u65c5\u6e38\u5c40
p3262
I2714
sV\u7eaa\u5f55
p3263
I946
sV\u7eaa\u5ff5\u7248
p3264
I353
sV\u8fde\u961f
p3265
I3477
sV\u9ad8\u5ea6
p3266
I1171
sV\u822a\u5929\u5668
p3267
I1785
sV\u6cf0\u56fd
p3268
I2638
sV\u6309\u63ed
p3269
I2074
sV\u673a\u4f1a
p3270
I357
sV\u5ea6\u5047
p3271
I2642
sV\u4e3b\u6559\u7ec3
p3272
I2487
sV\u7b14\u8005
p3273
I221
sV\u65b9\u6cd5
p3274
I2025
sV\u9898\u578b
p3275
I3034
sV\u53d8\u91cf
p3276
I3137
sV\u5916\u6587
p3277
I2999
sV\u8c28\u9632
p3278
I2053
sV\u5546\u4e1a
p3279
I224
sV\u56de\u7b54
p3280
I698
sV\u53e5\u5f0f
p3281
I3097
sV\u63a5\u53e3
p3282
I362
sV\u4eba\u53e3
p3283
I1083
sV\u574f\u6b7b
p3284
I2030
sV\u9999\u70df
p3285
I2273
sV\u7f5a\u8fdb
p3286
I2395
sV\u505a\u6cd5
p3287
I517
sV\u62a5\u4ef7
p3288
I27
sV\u8854\u63a5
p3289
I3005
sV\u7537\u4eba
p3290
I1591
sV\u7075\u9b42
p3291
I1772
sV\u77eb\u6b63
p3292
I2088
sV\u53e4\u4eca
p3293
I3383
sV\u6c1b\u56f4
p3294
I372
sV\u5fae\u79ef\u5206
p3295
I3155
sV\u4e2d\u56fd\u653f\u5e9c
p3296
I2675
sV\u5de5\u4e1a\u534f\u4f1a
p3297
I2108
sV\u57fa\u91d1
p3298
I258
sV\u5973\u58eb
p3299
I2761
sV\u5b8c\u6bd5
p3300
I3029
sV\u6df1\u77e5
p3301
I3410
sV\u4ef7
p3302
I239
sV\u88c5
p3303
I3249
sV\u64cd\u4f5c
p3304
I376
sV\u63a5\u53d7
p3305
I39
sV\u7956\u56fd
p3306
I2537
sV\u610f\u5411
p3307
I3289
sV\u673a\u4f53
p3308
I1995
sV\u5206\u6210
p3309
I1773
sV\u60ac\u5782
p3310
I2163
sV\u65b0\u65d7\u4e91
p3311
I961
sV\u70b9\u5361
p3312
I1099
sV\u7eaa\u5ff5
p3313
I1544
sV\u652f\u4ed8
p3314
I1070
sV\u593a\u51a0
p3315
I2284
sV\u5fc3\u7406
p3316
I383
sV\u6c5f\u82cf
p3317
I47
sV\u5f3a\u5236\u4fdd\u9669
p3318
I251
sV\u533a\u53bf
p3319
I723
sV\u533b\u5b66
p3320
I1937
sV\u5149\u660e
p3321
I1822
sV\u7f13\u89e3
p3322
I725
sV\u9898
p3323
I2947
sV\u5bf9\u51b3
p3324
I2348
sV\u505a\u9898
p3325
I3119
sV\u8fc8\u51fa
p3326
I1666
sV\u6df1\u5733
p3327
I2082
sV\u5b81\u6ce2
p3328
I2
sV\u53d6\u80dc
p3329
I2319
sV\u8bc9\u8bbc
p3330
I542
sV\u5316\u5b66
p3331
I1876
sV\u7ba1\u7406
p3332
I830
sV\u5e38\u8003
p3333
I2992
sV\u76ca\u4f70
p3334
I1927
sV\u6307\u6325
p3335
I3531
sV\u56de\u5bb6
p3336
I2072
sV\u7ed3\u6784
p3337
I3051
sV\u5bb0\u5ba2
p3338
I735
sV\u83b7\u53d6
p3339
I53
sV\u521b\u9020
p3340
I1076
sV\u8d28\u91cf
p3341
I55
sV\u5bfc\u5f39\u90e8\u961f
p3342
I3596
sV\u75c5\u4eba
p3343
I1959
sV\u91c7\u8d2d
p3344
I1234
sV\u6240\u6709\u4eba
p3345
I2432
sV\u5927\u5e08
p3346
I1613
sV\u5f20\u66d9\u5149
p3347
I2481
sV\u4e2d\u5b66
p3348
I2976
sV\u4f4d\u7f6e
p3349
I2556
sV\u4f4d
p3350
I1471
sV\u60f3\u6cd5
p3351
I1472
sV\u4f11\u606f
p3352
I1825
sV\u6e56\u5357
p3353
I1706
sV\u8f7f\u8f66
p3354
I69
sV\u6750\u8d28
p3355
I3336
sV\u534e\u7eb3
p3356
I1620
sV\u5f97\u77e5
p3357
I1246
sV\u6b3a\u8bc8
p3358
I758
sV\u677f\u5757
p3359
I1182
sV\u8bc4\u7ea7
p3360
I1767
sV\u7aef\u53e3
p3361
I403
sV\u5438\u5f15\u529b
p3362
I2329
sV\u4fdd\u62a4
p3363
I276
sV\u7eaa\u5f8b
p3364
I3713
sV\u5bb6\u6559
p3365
I3075
sV\u773c\u524d
p3366
I197
sV\u4ea4\u6613
p3367
I1122
sV\u5b87\u822a\u5c40
p3368
I1810
sV\u5145\u5206\u6027
p3369
I3162
sV\u65b0\u534e
p3370
I2792
sV\u5bfc\u81f4
p3371
I591
sV\u5e02
p3372
I776
sV\u5bfc\u5e08
p3373
I2041
sV\u533a\u522b
p3374
I984
sV\u4eff\u5236
p3375
I1865
sV\u4e2d\u534e
p3376
I3320
sV\u4f5c\u6218
p3377
I80
sV\u4f4f\u623f
p3378
I3260
sV\u6295
p3379
I287
sV\u5e03
p3380
I3018
sV\u6b27\u51a0
p3381
I2544
sV\u671f\u5f85
p3382
I1631
sV\u539f
p3383
I1259
sV\u8f93\u7ed9
p3384
I2502
sV\u52c9\u5f3a
p3385
I418
sV\u9898\u76ee
p3386
I3025
sV\u6d88\u8d39\u8005
p3387
I167
sV\u72ec\u8ff7
p3388
I3313
sV\u9886\u5230
p3389
I3305
sV\u8bc8\u9a97
p3390
I2051
sV\u5347\u503c
p3391
I936
sV\u6218\u7565
p3392
I1373
sV\u94b1
p3393
I627
sV\u9093\u73c9
p3394
I1486
sV\u62ff\u4e0b
p3395
I2304
sV\u4eba\u529b
p3396
I796
sV\u547d\u540d
p3397
I995
sV\u519b\u7528
p3398
I93
sV\u76f8\u6bd4
p3399
I598
sV\u65e5\u672c
p3400
I427
sV\u589e\u591a
p3401
I2734
sV\u7f16\u5199
p3402
I3180
sV\u5148
p3403
I1842
sV\u5dee\u5f02
p3404
I604
sV\u77e9\u9635
p3405
I3143
sV\u5bfb\u627e
p3406
I2097
sV\u5468\u5e74
p3407
I1547
sV\u953b\u70bc
p3408
I2215
sV\u770b\u5230
p3409
I1137
sV\u4fdd\u6301
p3410
I104
sV\u80dc\u5229
p3411
I2458
sV\u611f\u89c9
p3412
I432
sV\u53e4\u8ff9
p3413
I2662
sV\u53d1\u8868
p3414
I612
sV\u673a\u6784
p3415
I2004
sV\u8d8b\u52bf
p3416
I1007
sV\u610f\u7532
p3417
I2320
sV\u6c99\u6ee9
p3418
I2639
sV\u5e7f\u5dde
p3419
I1060
sV\u89e3
p3420
I3150
sV\u8bb2\u8ff0
p3421
I3290
sV\u8f6e\u8bad
p3422
I3699
sV\u5178\u8303
p3423
I1388
sV\u4ecb\u7ecd
p3424
I617
sV\u4fee\u6539
p3425
I2778
sV\u65e5\u671f
p3426
I1645
sV\u7ba1\u7406\u5458
p3427
I826
sV\u673a\u52a8\u8f66
p3428
I311
sV\u51a0\u519b
p3429
I440
sV\u8be6\u7ec6\u8d44\u6599
p3430
I3279
sV\u4e2d\u534e\u6c11\u65cf
p3431
I3366
sV\u97e9\u56fd
p3432
I886
sV\u52a8\u5fc3
p3433
I3272
sV\u5236\u5ea6
p3434
I623
sV\u63a8\u6572
p3435
I3082
sV\u7ec4\u7ec7
p3436
I1254
sV\u5f15\u8d77
p3437
I117
sV\u7ec3
p3438
I3035
sV\u8fc7\u5206
p3439
I629
sV\u6295\u7bee
p3440
I2453
sV\u5947\u8ff9
p3441
I2563
sV\u5993\u9662
p3442
I3451
sV\u524d\u7f6e\u6761\u4ef6
p3443
I1831
sV\u63a5\u5230
p3444
I2455
sV\u5c0f\u5cf0
p3445
I3078
sV\u9a7e\u9a76\u8005
p3446
I482
sV\u62c9\u5f00\u5e37\u5e55
p3447
I2045
sV\u8fdc\u8fdc\u4e0d\u591f
p3448
I1403
sV\u82f9\u679c\u516c\u53f8
p3449
I1659
sV\u8d70\u51fa
p3450
I905
sV\u63d0\u9ad8
p3451
I342
sV\u670d\u52a1\u9879\u76ee
p3452
I2071
sV\u817e\u683c\u91cc\u6c99\u6f20
p3453
I3550
sV\u6307\u51fa
p3454
I913
sV\u6784\u9020
p3455
I1407
sV\u6e56
p3456
I2830
sV\u6311\u8845
p3457
I3624
sV\u6ce8\u610f
p3458
I329
sV\u907f\u9707
p3459
I463
sV\u8d1f\u8d23
p3460
I640
sV\u4fc4\u7f57\u65af
p3461
I2647
sV\u5e7f\u544a
p3462
I1121
sV\u767b\u5c71
p3463
I2858
sV\u4eba\u7269
p3464
I1757
sV\u56fd\u7c73
p3465
I2310
sV\u519c\u6c11
p3466
I1298
sV\u62c9\u8fd1
p3467
I1415
sV\u7687\u5e1d
p3468
I2462
sV\u5b9e\u9a8c
p3469
I3039
sV\u751f\u6548
p3470
I1847
sV\u98a0\u7c38
p3471
I473
sV\u540d\u4e3a
p3472
I1422
sV\u529e\u516c\u5ba4
p3473
I1189
sV\u5357\u5317
p3474
I2667
sV\u8d44\u672c
p3475
I1521
sV\u91cd\u89c6
p3476
I1030
sV\u5668\u6750
p3477
I3573
sV\u6708\u4efd
p3478
I437
sV\u4e0a\u5e74
p3479
I2835
sV\u523a\u6fc0
p3480
I1533
sV\u53a6\u95e8\u961f
p3481
I2575
sV\u8ddd\u79bb
p3482
I1032
sV\u5229\u76ca
p3483
I654
sV\u5c0f\u5c9b
p3484
I3645
sV\u8f66\u5546
p3485
I1035
sV\u672c\u62a5\u8bb0\u8005
p3486
I148
sV\u77ed\u6587
p3487
I3079
sV\u8fc7\u5269
p3488
I150
sV\u8868\u793a
p3489
I0
sV\u5f90\u82f9\u82b3
p3490
I1708
sV\u4f53\u683c
p3491
I2136
sV\u6307\u6325\u5458
p3492
I3479
sV\u591c\u665a
p3493
I3381
sV\u6c7d\u7f38
p3494
I346
sV\u65bd\u5de5
p3495
I1229
sV\u5229\u7528
p3496
I1325
sV\u6293
p3497
I682
sV\u578b\u53f7
p3498
I3610
sV\u751f\u957f\u6fc0\u7d20
p3499
I2127
sV\u88c1\u5458
p3500
I1590
sV\u6770\u514b\u900a
p3501
I1580
sV\u5a18
p3502
I3250
sV\u603b\u90e8
p3503
I9
sV\u4ee3\u53f7
p3504
I944
sV\u5e02\u573a\u5316
p3505
I746
sV\u5b81\u6ce2\u5e02
p3506
I2797
sV\u7279\u8272
p3507
I1217
sV\u5e08\u5218\u658c
p3508
I2618
sV\u63a9
p3509
I2134
sV\u6c88\u8db3
p3510
I2578
sV\u590d\u82cf
p3511
I2634
sV\u5e02\u8425\u7387
p3512
I1878
sV\u8fd1\u671f
p3513
I910
sV\u6cf0\u94e2
p3514
I2722
sV\u5bb9\u7eb3
p3515
I703
sV\u897f\u5b89
p3516
I1958
sV\u89c2\u5bdf\u5bb6
p3517
I2648
sV\u666f\u533a
p3518
I2726
sV\u5efa\u4e2d
p3519
I3399
sV\u6b65\u67aa
p3520
I3658
sV\u63d0\u793a
p3521
I360
sV\u5c81\u6708
p3522
I3431
sV\u70ed\u91cf
p3523
I2145
sV\u7ffb
p3524
I2567
sV\u4e0d\u8ba9
p3525
I512
sV\u5730\u57df
p3526
I3220
sV\u4fdd\u5b58
p3527
I2020
sV\u4f9b\u6c42
p3528
I3296
sV\u5c0f\u5f3a
p3529
I3248
sV\u544a\u77e5
p3530
I2057
sV\u5f81\u6218
p3531
I1976
sV\u80bf\u7624
p3532
I1977
sV\u9910\u996e
p3533
I2812
sV\u4fe1
p3534
I3106
sV\u653f\u5e9c
p3535
I709
sV\u664b\u5347
p3536
I1446
sV\u5fc3\u76ee
p3537
I2670
sV\u51fa\u5904
p3538
I235
sV\u4e16\u94a7
p3539
I3445
sV\u8bf1\u5bfc
p3540
I2155
sV\u72ec\u5bb6
p3541
I237
sV\u82b1\u51a0
p3542
I374
sV\u6362\u53d6
p3543
I2564
sV\u6709\u76ca
p3544
I2201
sV\u8fbd\u5b81
p3545
I2505
sV\u59d4\u5458\u4f1a
p3546
I1750
sV\u9ad8\u5cf0
p3547
I2185
sV\u7528\u6cd5
p3548
I3103
sV\u5973\u7ae5
p3549
I2160
sV\u589e\u9ad8
p3550
I41
sV\u6c88\u9633\u5e02
p3551
I2359
sV\u89e3\u60d1
p3552
I3182
sV\u52a0\u5165
p3553
I1330
sV\u73a9\u6cd5
p3554
I2837
sV\u9053\u5fb7
p3555
I528
sV\u96f7\u514b\u8428\u65af
p3556
I529
sV\u88c5\u7532\u8f66
p3557
I3673
sV\u80e1\u540c
p3558
I1092
sV\u610f\u56fe
p3559
I2063
sV\u6742\u5fd7
p3560
I1460
sV\u4e0a\u6708
p3561
I1602
sV\u83ab\u65af\u79d1
p3562
I1617
sV\u53d8\u5316
p3563
I1103
sV\u83b7\u51c6
p3564
I1872
sV\u6267\u6cd5
p3565
I769
sV\u6da8\u505c
p3566
I1169
sV\u4e58\u5ba2
p3567
I732
sV\u7ecf\u7406
p3568
I1046
sV\u5f62\u5f0f
p3569
I733
sV\u770b\u91cd
p3570
I1466
sV\u4e2a\u4f53
p3571
I734
sV\u767b\u8bb0
p3572
I1812
sV\u51fa\u79df
p3573
I737
sV\u6cb9\u4ef7
p3574
I291
sV\u8c37
p3575
I2727
sV\u96be\u9003
p3576
I1342
sV\u803f\u5927\u52c7
p3577
I3511
sV\u516c\u53f8
p3578
I38
sV\u6f14\u53d8\u6210
p3579
I550
sV\u96c6\u6210
p3580
I3560
sV\u9ad8\u5c42\u4eba\u58eb
p3581
I552
sV\u9ad8\u5c42
p3582
I62
sV\u573a\u6b21
p3583
I2540
sV\u81ea\u95ed
p3584
I1476
sV\u5730\u5740
p3585
I2029
sV\u4e66
p3586
I2975
sV\u7535\u89c6\u53f0
p3587
I2373
sV\u5df4\u9ece
p3588
I2700
sV\u51c6\u5907
p3589
I270
sV\u62a5
p3590
I1721
sV\u9192\u76ee
p3591
I1349
sV\u4e09\u8005
p3592
I262
sV\u6324
p3593
I293
sV\u5085\u5bb6\u8fb9
p3594
I2818
sV\u767b\u5f55
p3595
I3199
sV\u5f00\u62d3
p3596
I3001
sV\u4f5c\u54c1\u5c55
p3597
I2870
sV\u8fea\u5fd7
p3598
I1556
sV\u4e3b\u961f
p3599
I2327
sV\u8d70\u52bf
p3600
I978
sV\u5730\u9762
p3601
I2191
sV\u519b\u56e2
p3602
I3703
sV\u591a\u5143\u5316
p3603
I72
sV\u65f6\u9694
p3604
I2005
sV\u5750\u5b8c
p3605
I3253
sV\u5c0f\u9f99
p3606
I3346
sV\u5e08\u56e2
p3607
I3534
sV\u543b\u5408
p3608
I2841
sV\u5370\u5ea6\u6d0b
p3609
I2674
sV\u535a\u89c8\u7fa4\u4e66
p3610
I3163
sV\u5f00
p3611
I152
sV\u5143\u7d20
p3612
I1371
sV\u7f5a\u7403
p3613
I2452
sV\u6570\u5b57
p3614
I282
sV\u8377\u5170\u4eba
p3615
I2197
sV\u7855\u58eb\u5b66\u4f4d
p3616
I1679
sV\u4f8b
p3617
I1928
sV\u8881\u624d
p3618
I3259
sV\u72ec\u7acb
p3619
I1123
sV\u85aa\u916c
p3620
I412
sV\u670d\u52a1\u7f51\u7edc
p3621
I82
sV\u5f53\u5929
p3622
I1819
sV\u4f5c\u8005
p3623
I286
sV\u9884\u5b9a
p3624
I3543
sV\u73af
p3625
I3170
sV\u9884\u7b97
p3626
I1482
sV\u5f00\u6218
p3627
I3614
sV\u627f\u8ba4
p3628
I898
sV\u603b\u51b3\u8d5b
p3629
I2430
sV\u9646\u6d77\u7a7a\u519b
p3630
I3618
sV\u6cd5\u5ead
p3631
I628
sV\u5f15\u8fdb
p3632
I1368
sV\u6c47\u6b3e
p3633
I1128
sV\u5c0f\u5e45
p3634
I907
sV\u5f81\u96c6
p3635
I1815
sV\u5927\u5956\u8d5b
p3636
I1783
sV\u6570\u5b66
p3637
I2960
sV\u8d2d\u4e70
p3638
I420
sV\u901f\u5ea6
p3639
I1730
sV\u8f66\u578b
p3640
I172
sV\u70ed\u70b9
p3641
I1175
sV\u5411\u91cf
p3642
I3134
sV\u9ec4\u5c71
p3643
I1733
sV\u8d39\u7528
p3644
I298
sV\u8bf7\u6765
p3645
I601
sV\u627f\u8bfa
p3646
I1380
sV\u987e\u96cf\u519b
p3647
I1841
sV\u836f\u54c1
p3648
I1894
sV\u6b21\u6570
p3649
I2251
sV\u8425\u517b
p3650
I2217
sV\u8d44\u6599
p3651
I1300
sV\u7ad9
p3652
I812
sV\u8865
p3653
I2322
sV\u60f3\u7740
p3654
I2384
sV\u4e03\u5929
p3655
I2833
sV\u7ea2\u78e8\u574a
p3656
I2742
sV\u535a\u58eb
p3657
I2935
sV\u7247\u957f
p3658
I3407
sV\u591a\u529f\u80fd\u5385
p3659
I3352
sV\u6218\u573a
p3660
I3529
sV\u5bbf\u820d
p3661
I2937
sV\u5174
p3662
I1699
sV\u9020\u578b
p3663
I185
sV\u4e3a\u51c6
p3664
I1858
sV\u627e
p3665
I771
sV\u94c1
p3666
I2211
sV\u5f20\u7231\u73b2
p3667
I3388
sV\u9686
p3668
I2607
sV\u79d1\u5b66\u5bb6
p3669
I2257
sV\u8054\u5408\u4f53
p3670
I1228
sV\u67e5\u8be2
p3671
I1564
sV\u76d1\u7ba1
p3672
I838
sV\u80fd\u5426
p3673
I120
sV\u4e2d\u56fd\u533a
p3674
I1196
sV\u5b98
p3675
I1682
sV\u7535\u78c1
p3676
I3545
sV\u8003\u8bd5
p3677
I2905
sV\u6f14\u7ec3
p3678
I3472
sV\u4f73\u8bdd
p3679
I2361
sV\u9648\u7956\u5fb7
p3680
I2350
sV\u65b0\u534e\u793e
p3681
I667
sV\u4f59\u7ef3
p3682
I3131
sV\u6570\u636e\u5e93
p3683
I1148
sV\u5c0f\u7ec4
p3684
I856
sV\u5973\u5b69
p3685
I2918
sV\u672c\u8d28
p3686
I1018
sV\u8fdc\u7a0b
p3687
I3546
sV\u7814\u7a76
p3688
I1274
sV\u5e37\u5e55
p3689
I3554
sV\u5e74\u9500\u552e\u989d
p3690
I1885
sV\u4ea4\u901a\u4e8b\u6545
p3691
I330
sV\u8bc1\u5b9e
p3692
I1605
sV\u613f
p3693
I860
sV\u8054\u5408\u4f1a
p3694
I916
sV\u98de\u884c
p3695
I1795
sV\u4e3b\u573a
p3696
I2312
sV\u519c\u4e1a
p3697
I2825
sV\u624b\u7eed
p3698
I644
sV\u7b26\u5408
p3699
I485
sV\u4eca\u540e
p3700
I178
sV\u4f01\u5212
p3701
I1519
sV\u4e0a\u5e02\u516c\u53f8
p3702
I1157
sV\u963f\u7247\u7c7b
p3703
I1975
sV\u56fd\u9632\u5927\u5b66
p3704
I3696
sV\u4e2d\u56fd\u4e66\u753b
p3705
I3354
sV\u53d6\u51b3\u4e8e
p3706
I1218
sV\u8054\u8d5b
p3707
I2484
sV\u8463\u4e8b
p3708
I1423
sV\u5f80\u5e74
p3709
I2015
sV\u4e89\u62a2
p3710
I2255
sV\u533b\u5b66\u9662
p3711
I2034
sV\u79f0\u4e3a
p3712
I1161
sV\u662f\u5426
p3713
I651
sV\u8282\u76ee
p3714
I1596
sV\u59d3
p3715
I3277
sV\u51fa\u5883
p3716
I2676
sV\u5957\u8def
p3717
I3027
sV\u5b9e\u8d28\u6027
p3718
I1034
sV\u51fa\u9898
p3719
I2945
sV\u64ad\u653e
p3720
I1595
sV\u94f6\u5ddd\u5e02
p3721
I2876
sV\u52a0\u901f
p3722
I486
sV\u6a21\u62df
p3723
I487
ssS'dfs'
p3724
(dp3725
I0
I27
sI1
I9
sI2
I2
sI3
I34
sI4
I4
sI5
I2
sI6
I4
sI7
I5
sI8
I2
sI9
I8
sI10
I3
sI11
I2
sI12
I8
sI13
I6
sI14
I4
sI15
I7
sI16
I2
sI17
I11
sI18
I1
sI19
I22
sI20
I9
sI21
I10
sI22
I12
sI23
I2
sI24
I10
sI25
I2
sI26
I4
sI27
I2
sI28
I1
sI29
I5
sI30
I4
sI31
I2
sI32
I10
sI33
I18
sI34
I12
sI35
I4
sI36
I6
sI37
I8
sI38
I32
sI39
I11
sI40
I4
sI41
I2
sI42
I9
sI43
I20
sI44
I12
sI45
I2
sI46
I3
sI47
I6
sI48
I8
sI49
I10
sI50
I9
sI51
I5
sI52
I12
sI53
I3
sI54
I15
sI55
I6
sI56
I4
sI57
I40
sI58
I5
sI59
I8
sI60
I27
sI61
I20
sI62
I4
sI63
I5
sI64
I2
sI65
I5
sI66
I2
sI67
I4
sI68
I6
sI69
I3
sI70
I2
sI71
I2
sI72
I2
sI73
I15
sI74
I2
sI75
I5
sI76
I39
sI77
I1
sI78
I7
sI79
I7
sI80
I11
sI81
I3
sI82
I2
sI83
I29
sI84
I10
sI85
I1
sI86
I5
sI87
I5
sI88
I1
sI89
I4
sI90
I10
sI91
I15
sI92
I7
sI93
I2
sI94
I2
sI95
I4
sI96
I1
sI97
I3
sI98
I10
sI99
I1
sI100
I5
sI101
I2
sI102
I3
sI103
I2
sI104
I8
sI105
I1
sI106
I7
sI107
I6
sI108
I24
sI109
I2
sI110
I9
sI111
I2
sI112
I9
sI113
I4
sI114
I14
sI115
I3
sI116
I13
sI117
I7
sI118
I22
sI119
I11
sI120
I6
sI121
I19
sI122
I2
sI123
I2
sI124
I9
sI125
I12
sI126
I6
sI127
I8
sI128
I17
sI129
I3
sI130
I9
sI131
I2
sI132
I1
sI133
I14
sI134
I7
sI135
I11
sI136
I1
sI137
I34
sI138
I7
sI139
I20
sI140
I10
sI141
I15
sI142
I5
sI143
I2
sI144
I13
sI145
I19
sI146
I6
sI147
I9
sI148
I11
sI149
I8
sI150
I2
sI151
I14
sI152
I4
sI153
I11
sI154
I2
sI155
I22
sI156
I8
sI157
I14
sI158
I6
sI159
I10
sI160
I2
sI161
I5
sI162
I2
sI163
I18
sI164
I5
sI165
I1
sI166
I5
sI167
I9
sI168
I2
sI169
I6
sI170
I8
sI171
I2
sI172
I5
sI173
I17
sI174
I3
sI175
I7
sI176
I2
sI177
I2
sI178
I5
sI179
I10
sI180
I16
sI181
I11
sI182
I6
sI183
I6
sI184
I2
sI185
I4
sI186
I4
sI187
I4
sI188
I2
sI189
I2
sI190
I11
sI191
I3
sI192
I1
sI193
I12
sI194
I7
sI195
I22
sI196
I5
sI197
I3
sI198
I3
sI199
I20
sI200
I19
sI201
I1
sI202
I3
sI203
I3
sI204
I6
sI205
I1
sI206
I2
sI207
I18
sI208
I2
sI209
I5
sI210
I2
sI211
I2
sI212
I8
sI213
I1
sI214
I35
sI215
I14
sI216
I2
sI217
I10
sI218
I2
sI219
I2
sI220
I2
sI221
I4
sI222
I1
sI223
I3
sI224
I8
sI225
I4
sI226
I4
sI227
I6
sI228
I2
sI229
I4
sI230
I3
sI231
I2
sI232
I11
sI233
I2
sI234
I5
sI235
I2
sI236
I1
sI237
I4
sI238
I3
sI239
I1
sI240
I4
sI241
I3
sI242
I7
sI243
I4
sI244
I20
sI245
I2
sI246
I16
sI247
I2
sI248
I2
sI249
I1
sI250
I8
sI251
I1
sI252
I3
sI253
I38
sI254
I5
sI255
I2
sI256
I3
sI257
I5
sI258
I2
sI259
I14
sI260
I2
sI261
I2
sI262
I1
sI263
I4
sI264
I1
sI265
I3
sI266
I27
sI267
I2
sI268
I6
sI269
I2
sI270
I20
sI271
I3
sI272
I12
sI273
I16
sI274
I2
sI275
I2
sI276
I5
sI277
I10
sI278
I17
sI279
I1
sI280
I10
sI281
I3
sI282
I11
sI283
I7
sI284
I6
sI285
I2
sI286
I4
sI287
I7
sI288
I8
sI289
I3
sI290
I13
sI291
I3
sI292
I1
sI293
I1
sI294
I4
sI295
I29
sI296
I2
sI297
I2
sI298
I7
sI299
I8
sI300
I1
sI301
I3
sI302
I7
sI303
I2
sI304
I3
sI305
I19
sI306
I2
sI307
I1
sI308
I3
sI309
I4
sI310
I8
sI311
I2
sI312
I10
sI313
I3
sI314
I5
sI315
I4
sI316
I8
sI317
I26
sI318
I16
sI319
I3
sI320
I2
sI321
I1
sI322
I4
sI323
I2
sI324
I2
sI325
I2
sI326
I3
sI327
I11
sI328
I2
sI329
I11
sI330
I2
sI331
I9
sI332
I17
sI333
I3
sI334
I8
sI335
I3
sI336
I7
sI337
I8
sI338
I6
sI339
I8
sI340
I2
sI341
I3
sI342
I23
sI343
I1
sI344
I2
sI345
I1
sI346
I1
sI347
I7
sI348
I3
sI349
I11
sI350
I4
sI351
I1
sI352
I1
sI353
I1
sI354
I12
sI355
I3
sI356
I9
sI357
I15
sI358
I1
sI359
I3
sI360
I2
sI361
I5
sI362
I4
sI363
I1
sI364
I6
sI365
I2
sI366
I1
sI367
I2
sI368
I2
sI369
I1
sI370
I6
sI371
I4
sI372
I4
sI373
I6
sI374
I1
sI375
I3
sI376
I7
sI377
I4
sI378
I8
sI379
I4
sI380
I1
sI381
I26
sI382
I14
sI383
I10
sI384
I14
sI385
I4
sI386
I1
sI387
I14
sI388
I2
sI389
I1
sI390
I2
sI391
I2
sI392
I4
sI393
I2
sI394
I23
sI395
I6
sI396
I1
sI397
I9
sI398
I1
sI399
I6
sI400
I5
sI401
I5
sI402
I7
sI403
I2
sI404
I2
sI405
I2
sI406
I9
sI407
I2
sI408
I2
sI409
I3
sI410
I4
sI411
I4
sI412
I1
sI413
I1
sI414
I7
sI415
I5
sI416
I4
sI417
I4
sI418
I3
sI419
I31
sI420
I9
sI421
I3
sI422
I1
sI423
I2
sI424
I1
sI425
I3
sI426
I5
sI427
I15
sI428
I3
sI429
I4
sI430
I4
sI431
I1
sI432
I15
sI433
I4
sI434
I1
sI435
I5
sI436
I7
sI437
I10
sI438
I1
sI439
I5
sI440
I3
sI441
I2
sI442
I5
sI443
I5
sI444
I3
sI445
I1
sI446
I1
sI447
I8
sI448
I4
sI449
I12
sI450
I11
sI451
I12
sI452
I4
sI453
I14
sI454
I5
sI455
I10
sI456
I3
sI457
I5
sI458
I1
sI459
I2
sI460
I8
sI461
I2
sI462
I1
sI463
I1
sI464
I2
sI465
I11
sI466
I2
sI467
I2
sI468
I3
sI469
I2
sI470
I1
sI471
I2
sI472
I1
sI473
I2
sI474
I20
sI475
I16
sI476
I8
sI477
I3
sI478
I4
sI479
I1
sI480
I3
sI481
I3
sI482
I1
sI483
I2
sI484
I11
sI485
I5
sI486
I3
sI487
I6
sI488
I2
sI489
I10
sI490
I5
sI491
I1
sI492
I1
sI493
I10
sI494
I8
sI495
I2
sI496
I2
sI497
I1
sI498
I11
sI499
I1
sI500
I2
sI501
I2
sI502
I2
sI503
I18
sI504
I2
sI505
I3
sI506
I2
sI507
I26
sI508
I3
sI509
I3
sI510
I13
sI511
I14
sI512
I3
sI513
I1
sI514
I5
sI515
I5
sI516
I3
sI517
I4
sI518
I4
sI519
I6
sI520
I9
sI521
I2
sI522
I1
sI523
I1
sI524
I2
sI525
I7
sI526
I2
sI527
I13
sI528
I2
sI529
I1
sI530
I2
sI531
I2
sI532
I3
sI533
I3
sI534
I5
sI535
I12
sI536
I10
sI537
I4
sI538
I2
sI539
I11
sI540
I5
sI541
I1
sI542
I4
sI543
I8
sI544
I14
sI545
I9
sI546
I4
sI547
I8
sI548
I8
sI549
I2
sI550
I1
sI551
I9
sI552
I2
sI553
I2
sI554
I3
sI555
I4
sI556
I2
sI557
I4
sI558
I13
sI559
I1
sI560
I6
sI561
I3
sI562
I6
sI563
I19
sI564
I4
sI565
I2
sI566
I3
sI567
I5
sI568
I3
sI569
I1
sI570
I2
sI571
I5
sI572
I13
sI573
I14
sI574
I9
sI575
I4
sI576
I4
sI577
I3
sI578
I6
sI579
I4
sI580
I3
sI581
I2
sI582
I1
sI583
I4
sI584
I8
sI585
I6
sI586
I2
sI587
I6
sI588
I2
sI589
I2
sI590
I10
sI591
I6
sI592
I2
sI593
I22
sI594
I10
sI595
I7
sI596
I16
sI597
I3
sI598
I10
sI599
I2
sI600
I2
sI601
I2
sI602
I1
sI603
I4
sI604
I2
sI605
I1
sI606
I11
sI607
I10
sI608
I2
sI609
I1
sI610
I2
sI611
I7
sI612
I3
sI613
I15
sI614
I15
sI615
I3
sI616
I2
sI617
I22
sI618
I2
sI619
I2
sI620
I2
sI621
I7
sI622
I2
sI623
I3
sI624
I5
sI625
I5
sI626
I6
sI627
I12
sI628
I5
sI629
I4
sI630
I2
sI631
I7
sI632
I7
sI633
I2
sI634
I4
sI635
I4
sI636
I14
sI637
I7
sI638
I2
sI639
I1
sI640
I6
sI641
I4
sI642
I7
sI643
I10
sI644
I2
sI645
I4
sI646
I8
sI647
I20
sI648
I1
sI649
I1
sI650
I3
sI651
I15
sI652
I2
sI653
I8
sI654
I5
sI655
I9
sI656
I3
sI657
I1
sI658
I7
sI659
I3
sI660
I2
sI661
I1
sI662
I12
sI663
I1
sI664
I2
sI665
I8
sI666
I2
sI667
I5
sI668
I1
sI669
I2
sI670
I5
sI671
I2
sI672
I3
sI673
I9
sI674
I2
sI675
I1
sI676
I3
sI677
I2
sI678
I2
sI679
I2
sI680
I5
sI681
I2
sI682
I3
sI683
I2
sI684
I4
sI685
I2
sI686
I16
sI687
I2
sI688
I5
sI689
I2
sI690
I6
sI691
I3
sI692
I2
sI693
I3
sI694
I10
sI695
I1
sI696
I5
sI697
I2
sI698
I2
sI699
I1
sI700
I3
sI701
I5
sI702
I2
sI703
I3
sI704
I4
sI705
I2
sI706
I2
sI707
I2
sI708
I2
sI709
I9
sI710
I17
sI711
I3
sI712
I7
sI713
I2
sI714
I3
sI715
I2
sI716
I1
sI717
I1
sI718
I1
sI719
I2
sI720
I8
sI721
I4
sI722
I3
sI723
I1
sI724
I7
sI725
I4
sI726
I5
sI727
I4
sI728
I2
sI729
I3
sI730
I2
sI731
I2
sI732
I2
sI733
I6
sI734
I1
sI735
I1
sI736
I1
sI737
I1
sI738
I1
sI739
I2
sI740
I2
sI741
I6
sI742
I2
sI743
I1
sI744
I6
sI745
I2
sI746
I2
sI747
I2
sI748
I3
sI749
I1
sI750
I5
sI751
I1
sI752
I1
sI753
I1
sI754
I13
sI755
I4
sI756
I2
sI757
I2
sI758
I2
sI759
I10
sI760
I7
sI761
I14
sI762
I5
sI763
I5
sI764
I7
sI765
I7
sI766
I15
sI767
I7
sI768
I3
sI769
I1
sI770
I2
sI771
I8
sI772
I9
sI773
I15
sI774
I5
sI775
I8
sI776
I6
sI777
I2
sI778
I5
sI779
I7
sI780
I3
sI781
I12
sI782
I2
sI783
I4
sI784
I1
sI785
I1
sI786
I8
sI787
I3
sI788
I4
sI789
I2
sI790
I1
sI791
I3
sI792
I5
sI793
I2
sI794
I2
sI795
I4
sI796
I2
sI797
I3
sI798
I4
sI799
I1
sI800
I2
sI801
I2
sI802
I14
sI803
I2
sI804
I1
sI805
I4
sI806
I8
sI807
I1
sI808
I2
sI809
I1
sI810
I1
sI811
I1
sI812
I5
sI813
I6
sI814
I1
sI815
I4
sI816
I1
sI817
I12
sI818
I1
sI819
I2
sI820
I1
sI821
I7
sI822
I3
sI823
I3
sI824
I1
sI825
I2
sI826
I2
sI827
I2
sI828
I5
sI829
I6
sI830
I18
sI831
I11
sI832
I4
sI833
I2
sI834
I5
sI835
I1
sI836
I2
sI837
I11
sI838
I2
sI839
I3
sI840
I5
sI841
I2
sI842
I9
sI843
I2
sI844
I7
sI845
I1
sI846
I2
sI847
I2
sI848
I2
sI849
I1
sI850
I1
sI851
I13
sI852
I2
sI853
I3
sI854
I6
sI855
I3
sI856
I2
sI857
I2
sI858
I3
sI859
I2
sI860
I3
sI861
I12
sI862
I2
sI863
I4
sI864
I1
sI865
I1
sI866
I3
sI867
I1
sI868
I6
sI869
I2
sI870
I4
sI871
I2
sI872
I2
sI873
I2
sI874
I2
sI875
I10
sI876
I2
sI877
I7
sI878
I5
sI879
I8
sI880
I1
sI881
I5
sI882
I5
sI883
I2
sI884
I3
sI885
I4
sI886
I8
sI887
I2
sI888
I1
sI889
I2
sI890
I3
sI891
I3
sI892
I1
sI893
I2
sI894
I3
sI895
I1
sI896
I2
sI897
I4
sI898
I2
sI899
I2
sI900
I2
sI901
I7
sI902
I2
sI903
I3
sI904
I16
sI905
I4
sI906
I1
sI907
I2
sI908
I4
sI909
I1
sI910
I6
sI911
I2
sI912
I2
sI913
I12
sI914
I1
sI915
I4
sI916
I2
sI917
I4
sI918
I2
sI919
I4
sI920
I1
sI921
I7
sI922
I2
sI923
I25
sI924
I6
sI925
I3
sI926
I1
sI927
I6
sI928
I13
sI929
I5
sI930
I3
sI931
I3
sI932
I3
sI933
I3
sI934
I2
sI935
I3
sI936
I1
sI937
I2
sI938
I5
sI939
I3
sI940
I4
sI941
I5
sI942
I1
sI943
I4
sI944
I2
sI945
I2
sI946
I2
sI947
I5
sI948
I2
sI949
I5
sI950
I2
sI951
I2
sI952
I2
sI953
I2
sI954
I2
sI955
I4
sI956
I2
sI957
I4
sI958
I1
sI959
I2
sI960
I2
sI961
I1
sI962
I2
sI963
I3
sI964
I11
sI965
I2
sI966
I3
sI967
I3
sI968
I2
sI969
I2
sI970
I1
sI971
I8
sI972
I4
sI973
I2
sI974
I4
sI975
I4
sI976
I2
sI977
I18
sI978
I2
sI979
I3
sI980
I8
sI981
I2
sI982
I8
sI983
I5
sI984
I2
sI985
I4
sI986
I2
sI987
I2
sI988
I4
sI989
I2
sI990
I1
sI991
I2
sI992
I14
sI993
I3
sI994
I6
sI995
I2
sI996
I7
sI997
I2
sI998
I3
sI999
I1
sI1000
I1
sI1001
I5
sI1002
I16
sI1003
I1
sI1004
I5
sI1005
I4
sI1006
I1
sI1007
I4
sI1008
I3
sI1009
I11
sI1010
I11
sI1011
I1
sI1012
I3
sI1013
I4
sI1014
I4
sI1015
I2
sI1016
I6
sI1017
I2
sI1018
I2
sI1019
I2
sI1020
I12
sI1021
I2
sI1022
I11
sI1023
I2
sI1024
I1
sI1025
I4
sI1026
I1
sI1027
I4
sI1028
I2
sI1029
I1
sI1030
I6
sI1031
I2
sI1032
I4
sI1033
I6
sI1034
I2
sI1035
I1
sI1036
I5
sI1037
I4
sI1038
I1
sI1039
I2
sI1040
I5
sI1041
I11
sI1042
I4
sI1043
I2
sI1044
I1
sI1045
I1
sI1046
I7
sI1047
I6
sI1048
I2
sI1049
I1
sI1050
I3
sI1051
I1
sI1052
I11
sI1053
I2
sI1054
I4
sI1055
I3
sI1056
I4
sI1057
I2
sI1058
I2
sI1059
I3
sI1060
I11
sI1061
I1
sI1062
I1
sI1063
I1
sI1064
I1
sI1065
I10
sI1066
I7
sI1067
I2
sI1068
I9
sI1069
I2
sI1070
I6
sI1071
I5
sI1072
I4
sI1073
I5
sI1074
I2
sI1075
I2
sI1076
I10
sI1077
I1
sI1078
I3
sI1079
I3
sI1080
I9
sI1081
I9
sI1082
I1
sI1083
I5
sI1084
I9
sI1085
I2
sI1086
I11
sI1087
I1
sI1088
I3
sI1089
I2
sI1090
I2
sI1091
I7
sI1092
I1
sI1093
I2
sI1094
I2
sI1095
I10
sI1096
I1
sI1097
I3
sI1098
I4
sI1099
I1
sI1100
I2
sI1101
I8
sI1102
I2
sI1103
I6
sI1104
I3
sI1105
I6
sI1106
I1
sI1107
I8
sI1108
I1
sI1109
I6
sI1110
I2
sI1111
I2
sI1112
I1
sI1113
I3
sI1114
I9
sI1115
I4
sI1116
I2
sI1117
I3
sI1118
I1
sI1119
I2
sI1120
I12
sI1121
I8
sI1122
I3
sI1123
I6
sI1124
I2
sI1125
I4
sI1126
I3
sI1127
I4
sI1128
I1
sI1129
I1
sI1130
I2
sI1131
I12
sI1132
I2
sI1133
I2
sI1134
I2
sI1135
I7
sI1136
I2
sI1137
I7
sI1138
I1
sI1139
I1
sI1140
I8
sI1141
I3
sI1142
I7
sI1143
I1
sI1144
I3
sI1145
I8
sI1146
I3
sI1147
I2
sI1148
I2
sI1149
I3
sI1150
I2
sI1151
I1
sI1152
I4
sI1153
I2
sI1154
I2
sI1155
I9
sI1156
I2
sI1157
I1
sI1158
I1
sI1159
I2
sI1160
I16
sI1161
I3
sI1162
I7
sI1163
I2
sI1164
I7
sI1165
I2
sI1166
I5
sI1167
I2
sI1168
I2
sI1169
I1
sI1170
I2
sI1171
I4
sI1172
I2
sI1173
I2
sI1174
I2
sI1175
I3
sI1176
I2
sI1177
I2
sI1178
I6
sI1179
I1
sI1180
I2
sI1181
I3
sI1182
I2
sI1183
I2
sI1184
I2
sI1185
I2
sI1186
I6
sI1187
I3
sI1188
I16
sI1189
I5
sI1190
I2
sI1191
I1
sI1192
I2
sI1193
I3
sI1194
I4
sI1195
I2
sI1196
I2
sI1197
I2
sI1198
I6
sI1199
I9
sI1200
I2
sI1201
I1
sI1202
I2
sI1203
I5
sI1204
I2
sI1205
I7
sI1206
I5
sI1207
I6
sI1208
I2
sI1209
I5
sI1210
I2
sI1211
I1
sI1212
I4
sI1213
I2
sI1214
I2
sI1215
I7
sI1216
I3
sI1217
I4
sI1218
I2
sI1219
I6
sI1220
I7
sI1221
I2
sI1222
I4
sI1223
I1
sI1224
I1
sI1225
I1
sI1226
I1
sI1227
I4
sI1228
I1
sI1229
I1
sI1230
I1
sI1231
I4
sI1232
I2
sI1233
I3
sI1234
I3
sI1235
I4
sI1236
I2
sI1237
I4
sI1238
I2
sI1239
I2
sI1240
I5
sI1241
I2
sI1242
I1
sI1243
I4
sI1244
I4
sI1245
I1
sI1246
I5
sI1247
I1
sI1248
I2
sI1249
I2
sI1250
I4
sI1251
I3
sI1252
I2
sI1253
I12
sI1254
I11
sI1255
I2
sI1256
I7
sI1257
I3
sI1258
I4
sI1259
I9
sI1260
I2
sI1261
I2
sI1262
I11
sI1263
I1
sI1264
I4
sI1265
I1
sI1266
I2
sI1267
I12
sI1268
I4
sI1269
I6
sI1270
I5
sI1271
I2
sI1272
I3
sI1273
I4
sI1274
I10
sI1275
I2
sI1276
I4
sI1277
I2
sI1278
I1
sI1279
I2
sI1280
I3
sI1281
I3
sI1282
I5
sI1283
I2
sI1284
I1
sI1285
I1
sI1286
I5
sI1287
I7
sI1288
I7
sI1289
I9
sI1290
I2
sI1291
I2
sI1292
I5
sI1293
I2
sI1294
I2
sI1295
I6
sI1296
I1
sI1297
I3
sI1298
I3
sI1299
I2
sI1300
I6
sI1301
I3
sI1302
I6
sI1303
I2
sI1304
I2
sI1305
I1
sI1306
I11
sI1307
I4
sI1308
I11
sI1309
I2
sI1310
I6
sI1311
I2
sI1312
I4
sI1313
I1
sI1314
I4
sI1315
I1
sI1316
I3
sI1317
I2
sI1318
I3
sI1319
I1
sI1320
I2
sI1321
I3
sI1322
I10
sI1323
I1
sI1324
I6
sI1325
I17
sI1326
I5
sI1327
I2
sI1328
I4
sI1329
I6
sI1330
I6
sI1331
I7
sI1332
I5
sI1333
I4
sI1334
I2
sI1335
I2
sI1336
I2
sI1337
I1
sI1338
I2
sI1339
I3
sI1340
I3
sI1341
I2
sI1342
I2
sI1343
I1
sI1344
I1
sI1345
I10
sI1346
I8
sI1347
I8
sI1348
I2
sI1349
I1
sI1350
I4
sI1351
I3
sI1352
I1
sI1353
I9
sI1354
I1
sI1355
I2
sI1356
I3
sI1357
I2
sI1358
I2
sI1359
I2
sI1360
I1
sI1361
I3
sI1362
I2
sI1363
I3
sI1364
I4
sI1365
I2
sI1366
I2
sI1367
I2
sI1368
I6
sI1369
I9
sI1370
I3
sI1371
I2
sI1372
I1
sI1373
I7
sI1374
I1
sI1375
I3
sI1376
I2
sI1377
I1
sI1378
I14
sI1379
I2
sI1380
I3
sI1381
I1
sI1382
I2
sI1383
I4
sI1384
I2
sI1385
I3
sI1386
I1
sI1387
I4
sI1388
I1
sI1389
I2
sI1390
I3
sI1391
I1
sI1392
I2
sI1393
I1
sI1394
I2
sI1395
I3
sI1396
I7
sI1397
I1
sI1398
I7
sI1399
I3
sI1400
I3
sI1401
I2
sI1402
I2
sI1403
I2
sI1404
I3
sI1405
I3
sI1406
I4
sI1407
I3
sI1408
I2
sI1409
I3
sI1410
I9
sI1411
I2
sI1412
I3
sI1413
I4
sI1414
I3
sI1415
I2
sI1416
I4
sI1417
I11
sI1418
I2
sI1419
I2
sI1420
I3
sI1421
I3
sI1422
I1
sI1423
I2
sI1424
I9
sI1425
I3
sI1426
I1
sI1427
I8
sI1428
I2
sI1429
I2
sI1430
I3
sI1431
I2
sI1432
I2
sI1433
I1
sI1434
I2
sI1435
I3
sI1436
I2
sI1437
I2
sI1438
I1
sI1439
I1
sI1440
I6
sI1441
I2
sI1442
I6
sI1443
I1
sI1444
I4
sI1445
I3
sI1446
I1
sI1447
I6
sI1448
I1
sI1449
I4
sI1450
I2
sI1451
I3
sI1452
I1
sI1453
I4
sI1454
I1
sI1455
I2
sI1456
I3
sI1457
I7
sI1458
I1
sI1459
I1
sI1460
I5
sI1461
I7
sI1462
I1
sI1463
I3
sI1464
I1
sI1465
I4
sI1466
I2
sI1467
I3
sI1468
I3
sI1469
I1
sI1470
I5
sI1471
I7
sI1472
I5
sI1473
I4
sI1474
I3
sI1475
I1
sI1476
I1
sI1477
I2
sI1478
I3
sI1479
I5
sI1480
I3
sI1481
I3
sI1482
I2
sI1483
I5
sI1484
I1
sI1485
I3
sI1486
I1
sI1487
I2
sI1488
I2
sI1489
I4
sI1490
I1
sI1491
I3
sI1492
I6
sI1493
I1
sI1494
I1
sI1495
I5
sI1496
I2
sI1497
I3
sI1498
I2
sI1499
I2
sI1500
I2
sI1501
I7
sI1502
I2
sI1503
I1
sI1504
I2
sI1505
I2
sI1506
I2
sI1507
I2
sI1508
I1
sI1509
I8
sI1510
I5
sI1511
I6
sI1512
I3
sI1513
I2
sI1514
I1
sI1515
I1
sI1516
I2
sI1517
I1
sI1518
I9
sI1519
I1
sI1520
I2
sI1521
I2
sI1522
I6
sI1523
I1
sI1524
I3
sI1525
I3
sI1526
I2
sI1527
I1
sI1528
I2
sI1529
I2
sI1530
I1
sI1531
I8
sI1532
I2
sI1533
I5
sI1534
I3
sI1535
I2
sI1536
I2
sI1537
I3
sI1538
I2
sI1539
I2
sI1540
I1
sI1541
I2
sI1542
I5
sI1543
I2
sI1544
I3
sI1545
I2
sI1546
I4
sI1547
I2
sI1548
I1
sI1549
I2
sI1550
I8
sI1551
I2
sI1552
I3
sI1553
I2
sI1554
I2
sI1555
I2
sI1556
I1
sI1557
I5
sI1558
I1
sI1559
I1
sI1560
I1
sI1561
I1
sI1562
I1
sI1563
I3
sI1564
I7
sI1565
I1
sI1566
I2
sI1567
I2
sI1568
I1
sI1569
I4
sI1570
I2
sI1571
I2
sI1572
I1
sI1573
I1
sI1574
I4
sI1575
I6
sI1576
I6
sI1577
I2
sI1578
I1
sI1579
I1
sI1580
I1
sI1581
I1
sI1582
I3
sI1583
I2
sI1584
I4
sI1585
I1
sI1586
I2
sI1587
I2
sI1588
I1
sI1589
I1
sI1590
I1
sI1591
I2
sI1592
I1
sI1593
I9
sI1594
I2
sI1595
I1
sI1596
I1
sI1597
I1
sI1598
I5
sI1599
I2
sI1600
I3
sI1601
I1
sI1602
I1
sI1603
I4
sI1604
I7
sI1605
I4
sI1606
I5
sI1607
I3
sI1608
I1
sI1609
I3
sI1610
I1
sI1611
I2
sI1612
I2
sI1613
I6
sI1614
I1
sI1615
I2
sI1616
I3
sI1617
I2
sI1618
I3
sI1619
I4
sI1620
I1
sI1621
I1
sI1622
I2
sI1623
I6
sI1624
I1
sI1625
I2
sI1626
I1
sI1627
I2
sI1628
I4
sI1629
I2
sI1630
I7
sI1631
I2
sI1632
I2
sI1633
I2
sI1634
I4
sI1635
I1
sI1636
I2
sI1637
I2
sI1638
I4
sI1639
I5
sI1640
I1
sI1641
I1
sI1642
I2
sI1643
I1
sI1644
I1
sI1645
I2
sI1646
I1
sI1647
I1
sI1648
I18
sI1649
I2
sI1650
I1
sI1651
I1
sI1652
I1
sI1653
I1
sI1654
I2
sI1655
I3
sI1656
I1
sI1657
I1
sI1658
I1
sI1659
I1
sI1660
I2
sI1661
I2
sI1662
I6
sI1663
I1
sI1664
I3
sI1665
I2
sI1666
I2
sI1667
I13
sI1668
I2
sI1669
I1
sI1670
I2
sI1671
I2
sI1672
I1
sI1673
I2
sI1674
I3
sI1675
I1
sI1676
I2
sI1677
I1
sI1678
I1
sI1679
I1
sI1680
I2
sI1681
I2
sI1682
I1
sI1683
I5
sI1684
I2
sI1685
I3
sI1686
I2
sI1687
I7
sI1688
I6
sI1689
I4
sI1690
I1
sI1691
I2
sI1692
I2
sI1693
I3
sI1694
I2
sI1695
I7
sI1696
I4
sI1697
I1
sI1698
I2
sI1699
I2
sI1700
I2
sI1701
I1
sI1702
I1
sI1703
I2
sI1704
I1
sI1705
I3
sI1706
I2
sI1707
I7
sI1708
I1
sI1709
I2
sI1710
I3
sI1711
I1
sI1712
I3
sI1713
I1
sI1714
I1
sI1715
I1
sI1716
I3
sI1717
I5
sI1718
I7
sI1719
I1
sI1720
I1
sI1721
I4
sI1722
I1
sI1723
I1
sI1724
I5
sI1725
I1
sI1726
I3
sI1727
I1
sI1728
I2
sI1729
I3
sI1730
I7
sI1731
I3
sI1732
I3
sI1733
I1
sI1734
I3
sI1735
I2
sI1736
I2
sI1737
I2
sI1738
I2
sI1739
I1
sI1740
I5
sI1741
I2
sI1742
I1
sI1743
I2
sI1744
I3
sI1745
I1
sI1746
I2
sI1747
I4
sI1748
I2
sI1749
I2
sI1750
I5
sI1751
I2
sI1752
I1
sI1753
I10
sI1754
I2
sI1755
I3
sI1756
I4
sI1757
I4
sI1758
I2
sI1759
I4
sI1760
I1
sI1761
I2
sI1762
I3
sI1763
I2
sI1764
I4
sI1765
I2
sI1766
I2
sI1767
I1
sI1768
I3
sI1769
I2
sI1770
I2
sI1771
I2
sI1772
I2
sI1773
I2
sI1774
I1
sI1775
I3
sI1776
I3
sI1777
I1
sI1778
I1
sI1779
I4
sI1780
I2
sI1781
I2
sI1782
I9
sI1783
I1
sI1784
I6
sI1785
I1
sI1786
I4
sI1787
I7
sI1788
I3
sI1789
I3
sI1790
I1
sI1791
I1
sI1792
I2
sI1793
I5
sI1794
I2
sI1795
I2
sI1796
I1
sI1797
I2
sI1798
I2
sI1799
I1
sI1800
I2
sI1801
I1
sI1802
I1
sI1803
I1
sI1804
I2
sI1805
I7
sI1806
I8
sI1807
I1
sI1808
I3
sI1809
I2
sI1810
I1
sI1811
I2
sI1812
I3
sI1813
I1
sI1814
I1
sI1815
I2
sI1816
I1
sI1817
I1
sI1818
I1
sI1819
I2
sI1820
I1
sI1821
I2
sI1822
I2
sI1823
I1
sI1824
I2
sI1825
I4
sI1826
I2
sI1827
I1
sI1828
I2
sI1829
I2
sI1830
I1
sI1831
I1
sI1832
I2
sI1833
I4
sI1834
I1
sI1835
I1
sI1836
I1
sI1837
I2
sI1838
I3
sI1839
I1
sI1840
I1
sI1841
I1
sI1842
I3
sI1843
I1
sI1844
I5
sI1845
I2
sI1846
I1
sI1847
I3
sI1848
I1
sI1849
I1
sI1850
I2
sI1851
I2
sI1852
I1
sI1853
I4
sI1854
I2
sI1855
I6
sI1856
I2
sI1857
I1
sI1858
I2
sI1859
I3
sI1860
I2
sI1861
I2
sI1862
I5
sI1863
I2
sI1864
I6
sI1865
I2
sI1866
I1
sI1867
I3
sI1868
I2
sI1869
I4
sI1870
I5
sI1871
I1
sI1872
I2
sI1873
I2
sI1874
I3
sI1875
I4
sI1876
I3
sI1877
I4
sI1878
I1
sI1879
I2
sI1880
I3
sI1881
I1
sI1882
I1
sI1883
I2
sI1884
I6
sI1885
I1
sI1886
I2
sI1887
I1
sI1888
I3
sI1889
I5
sI1890
I2
sI1891
I1
sI1892
I3
sI1893
I1
sI1894
I2
sI1895
I1
sI1896
I1
sI1897
I1
sI1898
I2
sI1899
I1
sI1900
I3
sI1901
I1
sI1902
I2
sI1903
I1
sI1904
I1
sI1905
I3
sI1906
I2
sI1907
I3
sI1908
I1
sI1909
I1
sI1910
I1
sI1911
I2
sI1912
I2
sI1913
I1
sI1914
I1
sI1915
I1
sI1916
I1
sI1917
I1
sI1918
I2
sI1919
I1
sI1920
I2
sI1921
I1
sI1922
I1
sI1923
I1
sI1924
I1
sI1925
I1
sI1926
I1
sI1927
I1
sI1928
I3
sI1929
I1
sI1930
I2
sI1931
I1
sI1932
I1
sI1933
I1
sI1934
I5
sI1935
I8
sI1936
I2
sI1937
I2
sI1938
I1
sI1939
I1
sI1940
I3
sI1941
I3
sI1942
I10
sI1943
I2
sI1944
I1
sI1945
I1
sI1946
I2
sI1947
I1
sI1948
I1
sI1949
I3
sI1950
I2
sI1951
I2
sI1952
I1
sI1953
I4
sI1954
I3
sI1955
I1
sI1956
I2
sI1957
I1
sI1958
I3
sI1959
I2
sI1960
I2
sI1961
I1
sI1962
I2
sI1963
I2
sI1964
I1
sI1965
I2
sI1966
I2
sI1967
I2
sI1968
I2
sI1969
I1
sI1970
I1
sI1971
I1
sI1972
I1
sI1973
I1
sI1974
I6
sI1975
I1
sI1976
I2
sI1977
I1
sI1978
I1
sI1979
I3
sI1980
I3
sI1981
I2
sI1982
I2
sI1983
I3
sI1984
I4
sI1985
I2
sI1986
I4
sI1987
I2
sI1988
I1
sI1989
I2
sI1990
I1
sI1991
I1
sI1992
I6
sI1993
I1
sI1994
I1
sI1995
I2
sI1996
I3
sI1997
I1
sI1998
I1
sI1999
I2
sI2000
I1
sI2001
I6
sI2002
I1
sI2003
I2
sI2004
I5
sI2005
I2
sI2006
I1
sI2007
I2
sI2008
I4
sI2009
I1
sI2010
I3
sI2011
I1
sI2012
I1
sI2013
I2
sI2014
I3
sI2015
I3
sI2016
I1
sI2017
I2
sI2018
I2
sI2019
I1
sI2020
I2
sI2021
I3
sI2022
I2
sI2023
I4
sI2024
I2
sI2025
I9
sI2026
I2
sI2027
I2
sI2028
I5
sI2029
I2
sI2030
I1
sI2031
I1
sI2032
I3
sI2033
I1
sI2034
I2
sI2035
I3
sI2036
I7
sI2037
I2
sI2038
I1
sI2039
I1
sI2040
I3
sI2041
I2
sI2042
I7
sI2043
I2
sI2044
I1
sI2045
I2
sI2046
I1
sI2047
I7
sI2048
I1
sI2049
I1
sI2050
I6
sI2051
I1
sI2052
I1
sI2053
I1
sI2054
I2
sI2055
I3
sI2056
I2
sI2057
I5
sI2058
I2
sI2059
I1
sI2060
I1
sI2061
I2
sI2062
I2
sI2063
I2
sI2064
I5
sI2065
I1
sI2066
I1
sI2067
I3
sI2068
I2
sI2069
I1
sI2070
I2
sI2071
I1
sI2072
I5
sI2073
I2
sI2074
I1
sI2075
I3
sI2076
I2
sI2077
I1
sI2078
I5
sI2079
I5
sI2080
I2
sI2081
I2
sI2082
I2
sI2083
I2
sI2084
I1
sI2085
I3
sI2086
I1
sI2087
I3
sI2088
I1
sI2089
I2
sI2090
I2
sI2091
I2
sI2092
I1
sI2093
I2
sI2094
I3
sI2095
I1
sI2096
I2
sI2097
I2
sI2098
I1
sI2099
I1
sI2100
I2
sI2101
I1
sI2102
I2
sI2103
I1
sI2104
I2
sI2105
I2
sI2106
I2
sI2107
I5
sI2108
I1
sI2109
I1
sI2110
I1
sI2111
I1
sI2112
I2
sI2113
I1
sI2114
I2
sI2115
I1
sI2116
I2
sI2117
I1
sI2118
I4
sI2119
I1
sI2120
I1
sI2121
I1
sI2122
I3
sI2123
I1
sI2124
I2
sI2125
I3
sI2126
I1
sI2127
I1
sI2128
I3
sI2129
I1
sI2130
I3
sI2131
I3
sI2132
I1
sI2133
I2
sI2134
I1
sI2135
I1
sI2136
I1
sI2137
I2
sI2138
I2
sI2139
I2
sI2140
I2
sI2141
I1
sI2142
I1
sI2143
I2
sI2144
I1
sI2145
I1
sI2146
I3
sI2147
I1
sI2148
I1
sI2149
I4
sI2150
I2
sI2151
I1
sI2152
I1
sI2153
I1
sI2154
I2
sI2155
I1
sI2156
I1
sI2157
I1
sI2158
I2
sI2159
I1
sI2160
I1
sI2161
I1
sI2162
I2
sI2163
I1
sI2164
I2
sI2165
I2
sI2166
I1
sI2167
I5
sI2168
I3
sI2169
I4
sI2170
I2
sI2171
I3
sI2172
I3
sI2173
I2
sI2174
I2
sI2175
I1
sI2176
I1
sI2177
I2
sI2178
I2
sI2179
I1
sI2180
I2
sI2181
I1
sI2182
I5
sI2183
I1
sI2184
I1
sI2185
I3
sI2186
I2
sI2187
I2
sI2188
I2
sI2189
I3
sI2190
I3
sI2191
I3
sI2192
I2
sI2193
I1
sI2194
I2
sI2195
I2
sI2196
I2
sI2197
I1
sI2198
I3
sI2199
I4
sI2200
I2
sI2201
I2
sI2202
I1
sI2203
I1
sI2204
I2
sI2205
I3
sI2206
I1
sI2207
I2
sI2208
I2
sI2209
I4
sI2210
I2
sI2211
I2
sI2212
I1
sI2213
I1
sI2214
I1
sI2215
I2
sI2216
I2
sI2217
I1
sI2218
I1
sI2219
I3
sI2220
I2
sI2221
I1
sI2222
I2
sI2223
I4
sI2224
I1
sI2225
I4
sI2226
I1
sI2227
I1
sI2228
I1
sI2229
I1
sI2230
I1
sI2231
I1
sI2232
I1
sI2233
I2
sI2234
I1
sI2235
I2
sI2236
I5
sI2237
I1
sI2238
I5
sI2239
I2
sI2240
I1
sI2241
I1
sI2242
I1
sI2243
I1
sI2244
I1
sI2245
I1
sI2246
I1
sI2247
I2
sI2248
I3
sI2249
I2
sI2250
I1
sI2251
I3
sI2252
I7
sI2253
I2
sI2254
I1
sI2255
I2
sI2256
I1
sI2257
I1
sI2258
I2
sI2259
I2
sI2260
I1
sI2261
I2
sI2262
I1
sI2263
I1
sI2264
I3
sI2265
I2
sI2266
I6
sI2267
I2
sI2268
I1
sI2269
I2
sI2270
I2
sI2271
I5
sI2272
I1
sI2273
I1
sI2274
I1
sI2275
I9
sI2276
I1
sI2277
I2
sI2278
I4
sI2279
I1
sI2280
I3
sI2281
I2
sI2282
I1
sI2283
I2
sI2284
I2
sI2285
I4
sI2286
I2
sI2287
I1
sI2288
I2
sI2289
I2
sI2290
I3
sI2291
I2
sI2292
I1
sI2293
I2
sI2294
I3
sI2295
I2
sI2296
I2
sI2297
I3
sI2298
I2
sI2299
I1
sI2300
I1
sI2301
I3
sI2302
I1
sI2303
I1
sI2304
I2
sI2305
I2
sI2306
I2
sI2307
I3
sI2308
I2
sI2309
I3
sI2310
I2
sI2311
I1
sI2312
I5
sI2313
I1
sI2314
I1
sI2315
I2
sI2316
I2
sI2317
I2
sI2318
I2
sI2319
I4
sI2320
I2
sI2321
I4
sI2322
I1
sI2323
I1
sI2324
I2
sI2325
I2
sI2326
I3
sI2327
I2
sI2328
I3
sI2329
I4
sI2330
I2
sI2331
I1
sI2332
I2
sI2333
I1
sI2334
I2
sI2335
I2
sI2336
I3
sI2337
I2
sI2338
I4
sI2339
I2
sI2340
I11
sI2341
I1
sI2342
I1
sI2343
I5
sI2344
I6
sI2345
I2
sI2346
I3
sI2347
I2
sI2348
I2
sI2349
I2
sI2350
I1
sI2351
I2
sI2352
I1
sI2353
I1
sI2354
I2
sI2355
I2
sI2356
I4
sI2357
I2
sI2358
I1
sI2359
I2
sI2360
I2
sI2361
I1
sI2362
I3
sI2363
I2
sI2364
I1
sI2365
I6
sI2366
I1
sI2367
I1
sI2368
I2
sI2369
I1
sI2370
I1
sI2371
I3
sI2372
I2
sI2373
I2
sI2374
I2
sI2375
I1
sI2376
I4
sI2377
I1
sI2378
I6
sI2379
I1
sI2380
I2
sI2381
I1
sI2382
I6
sI2383
I1
sI2384
I2
sI2385
I6
sI2386
I1
sI2387
I1
sI2388
I1
sI2389
I2
sI2390
I2
sI2391
I2
sI2392
I2
sI2393
I1
sI2394
I3
sI2395
I1
sI2396
I2
sI2397
I2
sI2398
I1
sI2399
I1
sI2400
I1
sI2401
I1
sI2402
I8
sI2403
I1
sI2404
I4
sI2405
I2
sI2406
I1
sI2407
I2
sI2408
I1
sI2409
I6
sI2410
I2
sI2411
I2
sI2412
I1
sI2413
I2
sI2414
I3
sI2415
I1
sI2416
I2
sI2417
I1
sI2418
I1
sI2419
I2
sI2420
I2
sI2421
I2
sI2422
I1
sI2423
I2
sI2424
I6
sI2425
I2
sI2426
I2
sI2427
I1
sI2428
I2
sI2429
I4
sI2430
I1
sI2431
I1
sI2432
I3
sI2433
I1
sI2434
I1
sI2435
I3
sI2436
I2
sI2437
I1
sI2438
I2
sI2439
I2
sI2440
I2
sI2441
I5
sI2442
I3
sI2443
I1
sI2444
I1
sI2445
I3
sI2446
I1
sI2447
I2
sI2448
I1
sI2449
I1
sI2450
I1
sI2451
I2
sI2452
I1
sI2453
I1
sI2454
I2
sI2455
I5
sI2456
I4
sI2457
I2
sI2458
I5
sI2459
I2
sI2460
I1
sI2461
I1
sI2462
I1
sI2463
I1
sI2464
I1
sI2465
I2
sI2466
I4
sI2467
I2
sI2468
I1
sI2469
I2
sI2470
I5
sI2471
I2
sI2472
I2
sI2473
I1
sI2474
I1
sI2475
I1
sI2476
I4
sI2477
I2
sI2478
I1
sI2479
I1
sI2480
I3
sI2481
I1
sI2482
I5
sI2483
I2
sI2484
I2
sI2485
I2
sI2486
I2
sI2487
I2
sI2488
I2
sI2489
I2
sI2490
I2
sI2491
I1
sI2492
I5
sI2493
I1
sI2494
I3
sI2495
I2
sI2496
I1
sI2497
I2
sI2498
I2
sI2499
I3
sI2500
I2
sI2501
I1
sI2502
I3
sI2503
I5
sI2504
I1
sI2505
I2
sI2506
I1
sI2507
I3
sI2508
I1
sI2509
I1
sI2510
I1
sI2511
I2
sI2512
I3
sI2513
I2
sI2514
I1
sI2515
I2
sI2516
I1
sI2517
I2
sI2518
I2
sI2519
I2
sI2520
I1
sI2521
I2
sI2522
I1
sI2523
I2
sI2524
I4
sI2525
I1
sI2526
I2
sI2527
I3
sI2528
I3
sI2529
I2
sI2530
I1
sI2531
I2
sI2532
I3
sI2533
I2
sI2534
I2
sI2535
I1
sI2536
I1
sI2537
I1
sI2538
I2
sI2539
I1
sI2540
I2
sI2541
I2
sI2542
I2
sI2543
I2
sI2544
I1
sI2545
I1
sI2546
I2
sI2547
I2
sI2548
I5
sI2549
I1
sI2550
I1
sI2551
I2
sI2552
I2
sI2553
I5
sI2554
I1
sI2555
I3
sI2556
I2
sI2557
I1
sI2558
I2
sI2559
I2
sI2560
I2
sI2561
I2
sI2562
I1
sI2563
I2
sI2564
I2
sI2565
I2
sI2566
I5
sI2567
I2
sI2568
I1
sI2569
I1
sI2570
I1
sI2571
I1
sI2572
I2
sI2573
I3
sI2574
I1
sI2575
I1
sI2576
I2
sI2577
I1
sI2578
I1
sI2579
I1
sI2580
I1
sI2581
I2
sI2582
I2
sI2583
I1
sI2584
I2
sI2585
I1
sI2586
I1
sI2587
I1
sI2588
I1
sI2589
I1
sI2590
I2
sI2591
I1
sI2592
I2
sI2593
I1
sI2594
I1
sI2595
I2
sI2596
I2
sI2597
I2
sI2598
I4
sI2599
I1
sI2600
I1
sI2601
I2
sI2602
I1
sI2603
I1
sI2604
I2
sI2605
I1
sI2606
I1
sI2607
I2
sI2608
I2
sI2609
I3
sI2610
I8
sI2611
I3
sI2612
I2
sI2613
I3
sI2614
I2
sI2615
I5
sI2616
I2
sI2617
I7
sI2618
I2
sI2619
I2
sI2620
I2
sI2621
I2
sI2622
I3
sI2623
I2
sI2624
I2
sI2625
I8
sI2626
I3
sI2627
I2
sI2628
I2
sI2629
I2
sI2630
I2
sI2631
I2
sI2632
I2
sI2633
I2
sI2634
I2
sI2635
I2
sI2636
I3
sI2637
I2
sI2638
I4
sI2639
I3
sI2640
I3
sI2641
I14
sI2642
I4
sI2643
I2
sI2644
I8
sI2645
I2
sI2646
I2
sI2647
I4
sI2648
I2
sI2649
I3
sI2650
I3
sI2651
I2
sI2652
I3
sI2653
I2
sI2654
I3
sI2655
I3
sI2656
I2
sI2657
I4
sI2658
I2
sI2659
I2
sI2660
I2
sI2661
I2
sI2662
I2
sI2663
I5
sI2664
I2
sI2665
I2
sI2666
I4
sI2667
I2
sI2668
I3
sI2669
I8
sI2670
I3
sI2671
I4
sI2672
I2
sI2673
I2
sI2674
I2
sI2675
I2
sI2676
I4
sI2677
I2
sI2678
I3
sI2679
I2
sI2680
I4
sI2681
I3
sI2682
I2
sI2683
I3
sI2684
I2
sI2685
I1
sI2686
I2
sI2687
I3
sI2688
I2
sI2689
I3
sI2690
I3
sI2691
I2
sI2692
I2
sI2693
I2
sI2694
I3
sI2695
I2
sI2696
I7
sI2697
I1
sI2698
I1
sI2699
I3
sI2700
I2
sI2701
I1
sI2702
I2
sI2703
I2
sI2704
I2
sI2705
I3
sI2706
I1
sI2707
I2
sI2708
I2
sI2709
I2
sI2710
I2
sI2711
I1
sI2712
I2
sI2713
I4
sI2714
I4
sI2715
I8
sI2716
I1
sI2717
I2
sI2718
I2
sI2719
I3
sI2720
I3
sI2721
I2
sI2722
I1
sI2723
I5
sI2724
I2
sI2725
I6
sI2726
I7
sI2727
I1
sI2728
I4
sI2729
I2
sI2730
I7
sI2731
I2
sI2732
I1
sI2733
I2
sI2734
I4
sI2735
I2
sI2736
I2
sI2737
I2
sI2738
I1
sI2739
I2
sI2740
I3
sI2741
I1
sI2742
I1
sI2743
I2
sI2744
I2
sI2745
I2
sI2746
I2
sI2747
I2
sI2748
I5
sI2749
I4
sI2750
I2
sI2751
I4
sI2752
I2
sI2753
I3
sI2754
I3
sI2755
I1
sI2756
I1
sI2757
I1
sI2758
I2
sI2759
I1
sI2760
I2
sI2761
I6
sI2762
I2
sI2763
I2
sI2764
I2
sI2765
I2
sI2766
I4
sI2767
I1
sI2768
I2
sI2769
I4
sI2770
I1
sI2771
I5
sI2772
I1
sI2773
I4
sI2774
I3
sI2775
I1
sI2776
I1
sI2777
I2
sI2778
I2
sI2779
I1
sI2780
I1
sI2781
I2
sI2782
I2
sI2783
I1
sI2784
I4
sI2785
I1
sI2786
I5
sI2787
I2
sI2788
I4
sI2789
I1
sI2790
I2
sI2791
I2
sI2792
I2
sI2793
I2
sI2794
I2
sI2795
I3
sI2796
I1
sI2797
I1
sI2798
I3
sI2799
I2
sI2800
I2
sI2801
I2
sI2802
I2
sI2803
I2
sI2804
I4
sI2805
I2
sI2806
I4
sI2807
I2
sI2808
I2
sI2809
I2
sI2810
I1
sI2811
I1
sI2812
I3
sI2813
I2
sI2814
I3
sI2815
I2
sI2816
I1
sI2817
I2
sI2818
I2
sI2819
I1
sI2820
I2
sI2821
I2
sI2822
I1
sI2823
I5
sI2824
I1
sI2825
I3
sI2826
I2
sI2827
I2
sI2828
I2
sI2829
I2
sI2830
I1
sI2831
I1
sI2832
I2
sI2833
I4
sI2834
I2
sI2835
I3
sI2836
I2
sI2837
I2
sI2838
I4
sI2839
I3
sI2840
I2
sI2841
I2
sI2842
I2
sI2843
I3
sI2844
I5
sI2845
I1
sI2846
I1
sI2847
I2
sI2848
I2
sI2849
I1
sI2850
I1
sI2851
I2
sI2852
I7
sI2853
I2
sI2854
I2
sI2855
I2
sI2856
I5
sI2857
I1
sI2858
I1
sI2859
I2
sI2860
I1
sI2861
I1
sI2862
I3
sI2863
I1
sI2864
I3
sI2865
I1
sI2866
I1
sI2867
I1
sI2868
I1
sI2869
I1
sI2870
I1
sI2871
I1
sI2872
I2
sI2873
I2
sI2874
I1
sI2875
I2
sI2876
I1
sI2877
I3
sI2878
I1
sI2879
I1
sI2880
I2
sI2881
I2
sI2882
I1
sI2883
I2
sI2884
I1
sI2885
I6
sI2886
I2
sI2887
I2
sI2888
I2
sI2889
I5
sI2890
I2
sI2891
I2
sI2892
I1
sI2893
I2
sI2894
I1
sI2895
I4
sI2896
I1
sI2897
I2
sI2898
I2
sI2899
I1
sI2900
I2
sI2901
I1
sI2902
I1
sI2903
I2
sI2904
I4
sI2905
I7
sI2906
I12
sI2907
I2
sI2908
I3
sI2909
I2
sI2910
I3
sI2911
I2
sI2912
I5
sI2913
I2
sI2914
I2
sI2915
I1
sI2916
I2
sI2917
I3
sI2918
I2
sI2919
I2
sI2920
I1
sI2921
I2
sI2922
I2
sI2923
I3
sI2924
I2
sI2925
I5
sI2926
I2
sI2927
I3
sI2928
I3
sI2929
I2
sI2930
I2
sI2931
I4
sI2932
I5
sI2933
I5
sI2934
I2
sI2935
I2
sI2936
I4
sI2937
I2
sI2938
I3
sI2939
I2
sI2940
I6
sI2941
I2
sI2942
I1
sI2943
I2
sI2944
I2
sI2945
I3
sI2946
I1
sI2947
I7
sI2948
I2
sI2949
I2
sI2950
I1
sI2951
I1
sI2952
I2
sI2953
I3
sI2954
I2
sI2955
I3
sI2956
I2
sI2957
I2
sI2958
I5
sI2959
I2
sI2960
I4
sI2961
I2
sI2962
I2
sI2963
I2
sI2964
I5
sI2965
I1
sI2966
I2
sI2967
I2
sI2968
I2
sI2969
I7
sI2970
I3
sI2971
I3
sI2972
I4
sI2973
I2
sI2974
I2
sI2975
I4
sI2976
I4
sI2977
I2
sI2978
I3
sI2979
I2
sI2980
I2
sI2981
I2
sI2982
I2
sI2983
I9
sI2984
I1
sI2985
I4
sI2986
I1
sI2987
I1
sI2988
I1
sI2989
I1
sI2990
I2
sI2991
I3
sI2992
I2
sI2993
I1
sI2994
I4
sI2995
I4
sI2996
I2
sI2997
I3
sI2998
I2
sI2999
I4
sI3000
I2
sI3001
I2
sI3002
I7
sI3003
I3
sI3004
I2
sI3005
I2
sI3006
I2
sI3007
I1
sI3008
I3
sI3009
I1
sI3010
I1
sI3011
I2
sI3012
I2
sI3013
I2
sI3014
I3
sI3015
I5
sI3016
I3
sI3017
I3
sI3018
I2
sI3019
I1
sI3020
I4
sI3021
I2
sI3022
I3
sI3023
I3
sI3024
I2
sI3025
I4
sI3026
I1
sI3027
I2
sI3028
I1
sI3029
I2
sI3030
I2
sI3031
I3
sI3032
I3
sI3033
I2
sI3034
I4
sI3035
I6
sI3036
I3
sI3037
I2
sI3038
I2
sI3039
I2
sI3040
I1
sI3041
I1
sI3042
I1
sI3043
I3
sI3044
I4
sI3045
I2
sI3046
I3
sI3047
I2
sI3048
I2
sI3049
I2
sI3050
I2
sI3051
I4
sI3052
I1
sI3053
I3
sI3054
I1
sI3055
I1
sI3056
I1
sI3057
I1
sI3058
I1
sI3059
I1
sI3060
I6
sI3061
I3
sI3062
I2
sI3063
I1
sI3064
I2
sI3065
I2
sI3066
I1
sI3067
I2
sI3068
I1
sI3069
I2
sI3070
I2
sI3071
I2
sI3072
I1
sI3073
I2
sI3074
I2
sI3075
I1
sI3076
I2
sI3077
I2
sI3078
I1
sI3079
I1
sI3080
I2
sI3081
I1
sI3082
I2
sI3083
I1
sI3084
I4
sI3085
I1
sI3086
I2
sI3087
I2
sI3088
I2
sI3089
I5
sI3090
I3
sI3091
I2
sI3092
I4
sI3093
I1
sI3094
I3
sI3095
I2
sI3096
I2
sI3097
I1
sI3098
I2
sI3099
I3
sI3100
I2
sI3101
I9
sI3102
I1
sI3103
I1
sI3104
I2
sI3105
I2
sI3106
I1
sI3107
I1
sI3108
I2
sI3109
I2
sI3110
I2
sI3111
I2
sI3112
I1
sI3113
I3
sI3114
I1
sI3115
I1
sI3116
I2
sI3117
I1
sI3118
I2
sI3119
I2
sI3120
I1
sI3121
I2
sI3122
I2
sI3123
I2
sI3124
I2
sI3125
I2
sI3126
I2
sI3127
I2
sI3128
I2
sI3129
I2
sI3130
I2
sI3131
I1
sI3132
I3
sI3133
I2
sI3134
I2
sI3135
I3
sI3136
I1
sI3137
I1
sI3138
I2
sI3139
I1
sI3140
I2
sI3141
I1
sI3142
I1
sI3143
I1
sI3144
I2
sI3145
I2
sI3146
I1
sI3147
I3
sI3148
I2
sI3149
I2
sI3150
I2
sI3151
I2
sI3152
I1
sI3153
I1
sI3154
I2
sI3155
I2
sI3156
I2
sI3157
I2
sI3158
I1
sI3159
I1
sI3160
I2
sI3161
I1
sI3162
I2
sI3163
I1
sI3164
I1
sI3165
I1
sI3166
I2
sI3167
I2
sI3168
I1
sI3169
I1
sI3170
I3
sI3171
I4
sI3172
I1
sI3173
I1
sI3174
I1
sI3175
I1
sI3176
I2
sI3177
I5
sI3178
I2
sI3179
I1
sI3180
I2
sI3181
I1
sI3182
I1
sI3183
I2
sI3184
I1
sI3185
I1
sI3186
I1
sI3187
I2
sI3188
I2
sI3189
I1
sI3190
I2
sI3191
I1
sI3192
I1
sI3193
I1
sI3194
I1
sI3195
I1
sI3196
I1
sI3197
I2
sI3198
I1
sI3199
I1
sI3200
I1
sI3201
I1
sI3202
I1
sI3203
I1
sI3204
I1
sI3205
I2
sI3206
I1
sI3207
I1
sI3208
I1
sI3209
I6
sI3210
I1
sI3211
I1
sI3212
I1
sI3213
I1
sI3214
I1
sI3215
I1
sI3216
I1
sI3217
I2
sI3218
I1
sI3219
I3
sI3220
I3
sI3221
I1
sI3222
I1
sI3223
I1
sI3224
I1
sI3225
I2
sI3226
I1
sI3227
I1
sI3228
I2
sI3229
I1
sI3230
I2
sI3231
I1
sI3232
I2
sI3233
I2
sI3234
I1
sI3235
I1
sI3236
I2
sI3237
I1
sI3238
I1
sI3239
I1
sI3240
I2
sI3241
I2
sI3242
I1
sI3243
I1
sI3244
I1
sI3245
I2
sI3246
I2
sI3247
I1
sI3248
I1
sI3249
I2
sI3250
I1
sI3251
I1
sI3252
I1
sI3253
I1
sI3254
I1
sI3255
I4
sI3256
I5
sI3257
I4
sI3258
I5
sI3259
I4
sI3260
I4
sI3261
I4
sI3262
I4
sI3263
I4
sI3264
I4
sI3265
I4
sI3266
I4
sI3267
I4
sI3268
I4
sI3269
I4
sI3270
I4
sI3271
I4
sI3272
I4
sI3273
I4
sI3274
I4
sI3275
I5
sI3276
I4
sI3277
I4
sI3278
I4
sI3279
I4
sI3280
I4
sI3281
I4
sI3282
I4
sI3283
I4
sI3284
I4
sI3285
I4
sI3286
I4
sI3287
I5
sI3288
I4
sI3289
I4
sI3290
I3
sI3291
I1
sI3292
I1
sI3293
I1
sI3294
I1
sI3295
I2
sI3296
I1
sI3297
I2
sI3298
I1
sI3299
I2
sI3300
I1
sI3301
I1
sI3302
I2
sI3303
I1
sI3304
I4
sI3305
I1
sI3306
I1
sI3307
I1
sI3308
I5
sI3309
I1
sI3310
I1
sI3311
I1
sI3312
I2
sI3313
I1
sI3314
I2
sI3315
I1
sI3316
I1
sI3317
I2
sI3318
I1
sI3319
I1
sI3320
I1
sI3321
I2
sI3322
I1
sI3323
I1
sI3324
I2
sI3325
I2
sI3326
I1
sI3327
I1
sI3328
I2
sI3329
I1
sI3330
I3
sI3331
I2
sI3332
I1
sI3333
I1
sI3334
I1
sI3335
I2
sI3336
I1
sI3337
I1
sI3338
I1
sI3339
I1
sI3340
I2
sI3341
I2
sI3342
I1
sI3343
I2
sI3344
I1
sI3345
I1
sI3346
I1
sI3347
I1
sI3348
I3
sI3349
I1
sI3350
I3
sI3351
I1
sI3352
I1
sI3353
I1
sI3354
I1
sI3355
I1
sI3356
I1
sI3357
I1
sI3358
I2
sI3359
I1
sI3360
I1
sI3361
I1
sI3362
I1
sI3363
I1
sI3364
I1
sI3365
I1
sI3366
I1
sI3367
I1
sI3368
I2
sI3369
I1
sI3370
I1
sI3371
I1
sI3372
I1
sI3373
I1
sI3374
I1
sI3375
I1
sI3376
I2
sI3377
I1
sI3378
I1
sI3379
I1
sI3380
I1
sI3381
I2
sI3382
I1
sI3383
I1
sI3384
I1
sI3385
I1
sI3386
I1
sI3387
I2
sI3388
I5
sI3389
I1
sI3390
I1
sI3391
I1
sI3392
I2
sI3393
I1
sI3394
I3
sI3395
I1
sI3396
I2
sI3397
I1
sI3398
I4
sI3399
I1
sI3400
I1
sI3401
I4
sI3402
I1
sI3403
I5
sI3404
I3
sI3405
I2
sI3406
I4
sI3407
I2
sI3408
I1
sI3409
I5
sI3410
I2
sI3411
I4
sI3412
I1
sI3413
I1
sI3414
I2
sI3415
I2
sI3416
I1
sI3417
I2
sI3418
I1
sI3419
I2
sI3420
I1
sI3421
I2
sI3422
I1
sI3423
I1
sI3424
I1
sI3425
I2
sI3426
I2
sI3427
I2
sI3428
I2
sI3429
I2
sI3430
I1
sI3431
I2
sI3432
I1
sI3433
I1
sI3434
I1
sI3435
I1
sI3436
I1
sI3437
I2
sI3438
I1
sI3439
I1
sI3440
I1
sI3441
I2
sI3442
I1
sI3443
I1
sI3444
I1
sI3445
I1
sI3446
I2
sI3447
I1
sI3448
I1
sI3449
I2
sI3450
I1
sI3451
I1
sI3452
I2
sI3453
I1
sI3454
I1
sI3455
I1
sI3456
I2
sI3457
I2
sI3458
I3
sI3459
I1
sI3460
I2
sI3461
I2
sI3462
I4
sI3463
I2
sI3464
I3
sI3465
I7
sI3466
I1
sI3467
I1
sI3468
I1
sI3469
I1
sI3470
I2
sI3471
I3
sI3472
I5
sI3473
I4
sI3474
I2
sI3475
I1
sI3476
I2
sI3477
I1
sI3478
I4
sI3479
I4
sI3480
I2
sI3481
I2
sI3482
I2
sI3483
I1
sI3484
I2
sI3485
I1
sI3486
I2
sI3487
I2
sI3488
I1
sI3489
I2
sI3490
I4
sI3491
I2
sI3492
I3
sI3493
I2
sI3494
I4
sI3495
I2
sI3496
I2
sI3497
I2
sI3498
I2
sI3499
I2
sI3500
I3
sI3501
I3
sI3502
I2
sI3503
I2
sI3504
I2
sI3505
I2
sI3506
I2
sI3507
I1
sI3508
I2
sI3509
I3
sI3510
I3
sI3511
I1
sI3512
I1
sI3513
I2
sI3514
I3
sI3515
I3
sI3516
I1
sI3517
I1
sI3518
I1
sI3519
I2
sI3520
I3
sI3521
I1
sI3522
I2
sI3523
I1
sI3524
I2
sI3525
I2
sI3526
I1
sI3527
I2
sI3528
I3
sI3529
I5
sI3530
I2
sI3531
I4
sI3532
I4
sI3533
I1
sI3534
I2
sI3535
I3
sI3536
I3
sI3537
I2
sI3538
I2
sI3539
I2
sI3540
I1
sI3541
I1
sI3542
I3
sI3543
I2
sI3544
I3
sI3545
I1
sI3546
I3
sI3547
I3
sI3548
I1
sI3549
I2
sI3550
I1
sI3551
I2
sI3552
I2
sI3553
I4
sI3554
I1
sI3555
I2
sI3556
I4
sI3557
I2
sI3558
I3
sI3559
I2
sI3560
I3
sI3561
I1
sI3562
I2
sI3563
I3
sI3564
I3
sI3565
I2
sI3566
I1
sI3567
I1
sI3568
I1
sI3569
I2
sI3570
I2
sI3571
I2
sI3572
I2
sI3573
I2
sI3574
I3
sI3575
I2
sI3576
I2
sI3577
I1
sI3578
I1
sI3579
I2
sI3580
I2
sI3581
I1
sI3582
I1
sI3583
I2
sI3584
I2
sI3585
I2
sI3586
I3
sI3587
I3
sI3588
I2
sI3589
I1
sI3590
I2
sI3591
I2
sI3592
I1
sI3593
I1
sI3594
I2
sI3595
I1
sI3596
I1
sI3597
I2
sI3598
I1
sI3599
I1
sI3600
I1
sI3601
I2
sI3602
I4
sI3603
I1
sI3604
I1
sI3605
I1
sI3606
I1
sI3607
I3
sI3608
I1
sI3609
I1
sI3610
I1
sI3611
I2
sI3612
I1
sI3613
I2
sI3614
I1
sI3615
I1
sI3616
I1
sI3617
I1
sI3618
I1
sI3619
I1
sI3620
I1
sI3621
I1
sI3622
I3
sI3623
I1
sI3624
I1
sI3625
I2
sI3626
I1
sI3627
I1
sI3628
I3
sI3629
I2
sI3630
I1
sI3631
I1
sI3632
I1
sI3633
I2
sI3634
I1
sI3635
I2
sI3636
I1
sI3637
I1
sI3638
I1
sI3639
I1
sI3640
I1
sI3641
I1
sI3642
I1
sI3643
I1
sI3644
I1
sI3645
I1
sI3646
I1
sI3647
I2
sI3648
I1
sI3649
I1
sI3650
I1
sI3651
I1
sI3652
I3
sI3653
I1
sI3654
I2
sI3655
I2
sI3656
I3
sI3657
I1
sI3658
I1
sI3659
I2
sI3660
I1
sI3661
I1
sI3662
I2
sI3663
I2
sI3664
I3
sI3665
I1
sI3666
I1
sI3667
I2
sI3668
I1
sI3669
I1
sI3670
I1
sI3671
I1
sI3672
I1
sI3673
I1
sI3674
I1
sI3675
I1
sI3676
I1
sI3677
I1
sI3678
I1
sI3679
I1
sI3680
I1
sI3681
I1
sI3682
I1
sI3683
I1
sI3684
I1
sI3685
I1
sI3686
I1
sI3687
I1
sI3688
I1
sI3689
I1
sI3690
I1
sI3691
I1
sI3692
I1
sI3693
I1
sI3694
I1
sI3695
I1
sI3696
I1
sI3697
I1
sI3698
I1
sI3699
I1
sI3700
I1
sI3701
I1
sI3702
I1
sI3703
I1
sI3704
I1
sI3705
I1
sI3706
I1
sI3707
I1
sI3708
I1
sI3709
I1
sI3710
I1
sI3711
I1
sI3712
I1
sI3713
I1
sI3714
I1
ssS'num_nnz'
p3726
I11994
sS'id2token'
p3727
(dp3728
sS'num_pos'
p3729
I23927
sb.